ccopy_reg
_reconstructor
p0
(cdmp.srv._GetDMPPlan
GetDMPPlanResponse
p1
c__builtin__
object
p2
Ntp3
Rp4
(lp5
g0
(cdmp.msg._DMPTraj
DMPTraj
p6
g2
Ntp7
Rp8
(lp9
(lp10
g0
(cdmp.msg._DMPPoint
DMPPoint
p11
g2
Ntp12
Rp13
(lp14
(F0.13720515089056465
F-0.26381393960498867
F1.2110084708340434
tp15
a(F0.0005077734397354044
F0.00046044297588357315
F2.1024896834220014e-05
tp16
abag0
(g11
g2
Ntp17
Rp18
(lp19
(F0.1379058282238985
F-0.26318274154256843
F1.2110388719904972
tp20
a(F0.0009851571476120608
F0.0008829357008052235
F4.4286973104159314e-05
tp21
abag0
(g11
g2
Ntp22
Rp23
(lp24
(F0.13906797072209912
F-0.26215513375513927
F1.2110956672847726
tp25
a(F0.0014230698981897094
F0.0012408130355665756
F7.529597990031774e-05
tp26
abag0
(g11
g2
Ntp27
Rp28
(lp29
(F0.14064901210151579
F-0.26080456248144995
F1.2111883804877464
tp30
a(F0.0018138579095931004
F0.0015122319619438982
F0.00011844768412522956
tp31
abag0
(g11
g2
Ntp32
Rp33
(lp34
(F0.1425994550358615
F-0.2592238061760256
F1.2113303405598728
tp35
a(F0.002151657201927429
F0.0016815664176349542
F0.00017667566097978525
tp36
abag0
(g11
g2
Ntp37
Rp38
(lp39
(F0.14486476578520685
F-0.2575183753595393
F1.2115371258341003
tp40
a(F0.002432652721281193
F0.0017403545686474977
F0.0002512198392349379
tp41
abag0
(g11
g2
Ntp42
Rp43
(lp44
(F0.14738748121626166
F-0.25579916850385115
F1.211824829840559
tp45
a(F0.002655221773196389
F0.0016877428095908834
F0.0003415264803602209
tp46
abag0
(g11
g2
Ntp47
Rp48
(lp49
(F0.15010941032623207
F-0.2541748955776912
F1.2122082822725748
tp50
a(F0.0028199563470156378
F0.0015304059002601946
F0.0004452846821543083
tp51
abag0
(g11
g2
Ntp52
Rp53
(lp54
(F0.15297380987962356
F-0.2527447869847226
F1.2126993597330782
tp55
a(F0.0029295661287495243
F0.0012819584979977337
F0.0005585947189160596
tp56
abag0
(g11
g2
Ntp57
Rp58
(lp59
(F0.1559274183729659
F-0.25159207656807514
F1.2133055124609782
tp60
a(F0.002988670948617363
F0.000961907488791058
F0.0006762542471488556
tp61
abag0
(g11
g2
Ntp62
Rp63
(lp64
(F0.15892224381886821
F-0.2507786857631937
F1.2140286159716793
tp65
a(F0.00300349766962883
F0.0005942246765779849
F0.00079214025550887
tp66
abag0
(g11
g2
Ntp67
Rp68
(lp69
(F0.16191701795071828
F-0.2503414466359229
F1.2148642318087324
tp70
a(F0.002981501726722719
F0.00020564359313986343
F0.0008996581678279434
tp71
abag0
(g11
g2
Ntp72
Rp73
(lp74
(F0.1648782512164379
F-0.2502900910160697
F1.2158013312456977
tp75
a(F0.002930937377227439
F-0.00017619908639891863
F0.0009922251405399363
tp76
abag0
(g11
g2
Ntp77
Rp78
(lp79
(F0.1677808479196112
F-0.2506071091097009
F1.2168225020100376
tp80
a(F0.002860403018833103
F-0.0005246487866992936
F0.001063752600198656
tp81
abag0
(g11
g2
Ntp82
Rp83
(lp84
(F0.17060826748179792
F-0.2512494524800244
F1.217904623337136
tp85
a(F0.002778388568702614
F-0.0008158168187918269
F0.0011090935440907649
tp86
abag0
(g11
g2
Ntp87
Rp88
(lp89
(F0.1733522443843495
F-0.25215193191445245
F1.2190199613466397
tp90
a(F0.002692850880537684
F-0.0010301438782197648
F0.001124423005858952
tp91
abag0
(g11
g2
Ntp92
Rp93
(lp94
(F0.1760121042904276
F-0.25323204878787364
F1.2201376071716215
tp95
a(F0.0026108406123206284
F-0.0011536415775286444
F0.0011075251325726294
tp96
abag0
(g11
g2
Ntp97
Rp98
(lp99
(F0.17859373568202125
F-0.2543959064320502
F1.221225156475114
tp100
a(F0.002538200047084726
F-0.001178734052570812
F0.0010579671481797366
tp101
abag0
(g11
g2
Ntp102
Rp103
(lp104
(F0.1811082938394024
F-0.25554478159207444
F1.2222505125409526
tp105
a(F0.0024793463925248107
F-0.00110465023154341
F0.000977148592093001
tp106
abag0
(g11
g2
Ntp107
Rp108
(lp109
(F0.18357072621260814
F-0.25658189930811426
F1.2231836870778239
tp110
a(F0.002437149382089968
F-0.0009373487137795875
F0.0008682230413068412
tp111
abag0
(g11
g2
Ntp112
Rp113
(lp114
(F0.1859982146114653
F-0.25741894943358573
F1.223998473682561
tp115
a(F0.002412905946421199
F-0.0006889891956053581
F0.0007358984306527013
tp116
abag0
(g11
g2
Ntp117
Rp118
(lp119
(F0.18840862997843597
F-0.25798190924130465
F1.2246738784088111
tp120
a(F0.0024064087073575246
F-0.0003769948244696776
F0.0005861304627052741
tp121
abag0
(g11
g2
Ntp122
Rp123
(lp124
(F0.1908190899956651
F-0.2582157918089877
F1.2251952093203493
tp125
a(F0.0024160994418186035
F-2.277672689612307e-05
F0.000425730876141814
tp126
abag0
(g11
g2
Ntp127
Rp128
(lp129
(F0.19324469896238258
F-0.25808801982664475
F1.2255547509783795
tp130
a(F0.0024392938076603457
F0.000349786512160493
F0.0002619180326712839
tp131
abag0
(g11
g2
Ntp132
Rp133
(lp134
(F0.19569753412450036
F-0.25759022324916053
F1.2257519787833389
tp135
a(F0.0024724597989511867
F0.000716006800102655
F0.00010184101759172433
tp136
abag0
(g11
g2
Ntp137
Rp138
(lp139
(F0.19818592405928223
F-0.25673836978038894
F1.2257932999142411
tp140
a(F0.002511529811426397
F0.001052067029740318
F-4.7890003260961885e-05
tp141
abag0
(g11
g2
Ntp142
Rp143
(lp144
(F0.20071404410198193
F-0.25557125180664164
F1.2256913400636908
tp145
a(F0.0025522249728588886
F0.0013366098796504266
F-0.00018163514461275214
tp146
abag0
(g11
g2
Ntp147
Rp148
(lp149
(F0.20328183252224646
F-0.2541474642523868
F1.225463826021019
tp150
a(F0.002590370560268329
F0.0015521290698365558
F-0.0002950887589494702
tp151
abag0
(g11
g2
Ntp152
Rp153
(lp154
(F0.20588521058604164
F-0.25254110746670516
F1.2251321413147211
tp155
a(F0.002622182829059263
F0.0016860726210910161
F-0.000385551730933533
tp156
abag0
(g11
g2
Ntp157
Rp158
(lp159
(F0.20851657105305899
F-0.25083653112238624
F1.224719653773424
tp160
a(F0.0026445102775601906
F0.0017315889095041099
F-0.00045209431503608153
tp161
abag0
(g11
g2
Ntp162
Rp163
(lp164
(F0.21116548416926106
F-0.24912249400342928
F1.2242499285867798
tp165
a(F0.00265501605110429
F0.0016878718442421858
F-0.0004955993270647976
tp166
abag0
(g11
g2
Ntp167
Rp168
(lp169
(F0.21381955869292998
F-0.24748614690913856
F1.2237449473195607
tp170
a(F0.0026522925834198143
F0.0015600895157272762
F-0.0005186837114877004
tp171
abag0
(g11
g2
Ntp172
Rp173
(lp174
(F0.21646538852934463
F-0.2460072500178848
F1.223223451976447
tp175
a(F0.0026359043729136636
F0.0013589092166536704
F-0.0005255047570720973
tp176
abag0
(g11
g2
Ntp177
Rp178
(lp179
(F0.21908951341957725
F-0.2447530121811345
F1.2226995238191638
tp180
a(F0.0026063596740890783
F0.0010996588834326188
F-0.000521464961504422
tp181
abag0
(g11
g2
Ntp182
Rp183
(lp184
(F0.22167932478699268
F-0.2437738899021845
F1.2221814899337786
tp185
a(F0.0025650165312839936
F0.0008011889257404431
F-0.0005128362328932941
tp186
abag0
(g11
g2
Ntp187
Rp188
(lp189
(F0.224223854936609
F-0.2431006120509811
F1.2216712277530228
tp190
a(F0.0025139326998593393
F0.0004845175440308248
F-0.0005063293220035504
tp191
abag0
(g11
g2
Ntp192
Rp193
(lp194
(F0.22671439869757173
F-0.24274260795339073
F1.2211639104726244
tp195
a(F0.002455672339145426
F0.00017135576973093894
F-0.0005086377701798316
tp196
abag0
(g11
g2
Ntp197
Rp198
(lp199
(F0.22914493044148893
F-0.24268791768344078
F1.2206482064599045
tp200
a(F0.0023930847305720254
F-0.00011738518014536503
F-0.0005259870285673024
tp201
abag0
(g11
g2
Ntp202
Rp203
(lp204
(F0.23151229517979993
F-0.24290456108252653
F1.2201069153843753
tp205
a(F0.0023290715513460594
F-0.00036300236960269726
F-0.0005637186887784244
tp206
abag0
(g11
g2
Ntp207
Rp208
(lp209
(F0.23381616903045171
F-0.24334324324265763
F1.2195179949590702
tp210
a(F0.0022663593717744705
F-0.0005502311992884217
F-0.0006259370403015841
tp211
abag0
(g11
g2
Ntp212
Rp213
(lp214
(F0.23605880062034137
F-0.24394118556623143
F1.218855906791769
tp215
a(F0.002207293071775881
F-0.0006682167112143008
F-0.0007152406474528036
tp216
abag0
(g11
g2
Ntp217
Rp218
(lp219
(F0.2382445598855934
F-0.24462679888571198
F1.218093189571394
tp220
a(F0.002153663890010897
F-0.0007111648974129812
F-0.0008325556489642956
tp221
abag0
(g11
g2
Ntp222
Rp223
(lp224
(F0.24037933330335157
F-0.24532486313353563
F1.217202153952244
tp225
a(F0.002106582991215232
F-0.0006786356732298555
F-0.0009770804513293747
tp226
abag0
(g11
g2
Ntp227
Rp228
(lp229
(F0.24246981407720264
F-0.2459618498503638
F1.2161565868920134
tp230
a(F0.0020664079780726144
F-0.0005754642681730203
F-0.0011463439020565252
tp231
abag0
(g11
g2
Ntp232
Rp233
(lp234
(F0.24452274167289725
F-0.24647102089033437
F1.214933354191823
tp235
a(F0.0020327259325953755
F-0.0004113233221040703
F-0.0013363714105478187
tp236
abag0
(g11
g2
Ntp237
Rp238
(lp239
(F0.2465441470873702
F-0.24679695876383853
F1.2135137984034392
tp240
a(F0.0020043926153076306
F-0.00019996220974564987
F-0.001541946346575586
tp241
abag0
(g11
g2
Ntp242
Rp243
(lp244
(F0.24853865832447541
F-0.24689922919607374
F1.211884844438206
tp245
a(F0.001979623644830742
F4.1818570742351836e-05
F-0.0017569478634107242
tp246
abag0
(g11
g2
Ntp247
Rp248
(lp249
(F0.25050891499663
F-0.24675494118676608
F1.2100397460163261
tp250
a(F0.001956130073966371
F0.00029538311428780543
F-0.001974741467196793
tp251
abag0
(g11
g2
Ntp252
Rp253
(lp254
(F0.25245513225852007
F-0.24636004937972533
F1.2079784310532096
tp255
a(F0.0019312879853514832
F0.0005415794995624703
F-0.002188595491203556
tp256
abag0
(g11
g2
Ntp257
Rp258
(lp259
(F0.25437484308824304
F-0.24572933221545346
F1.2057074314529732
tp260
a(F0.0019023297174230749
F0.0007620709094041032
F-0.0023920953214527554
tp261
abag0
(g11
g2
Ntp262
Rp263
(lp264
(F0.25626283508810394
F-0.2448950709511109
F1.2032394106923183
tp265
a(F0.0018665432101917533
F0.0009405873762922443
F-0.002579527819562728
tp266
abag0
(g11
g2
Ntp267
Rp268
(lp269
(F0.2581112843922772
F-0.2439045429048784
F1.2005923291472809
tp270
a(F0.0018214657781364153
F0.0010640140711525932
F-0.002746210830402607
tp271
abag0
(g11
g2
Ntp272
Rp273
(lp274
(F0.2599100758743873
F-0.2428165212693884
F1.1977883105758893
tp275
a(F0.001765059358508216
F0.0011232446735863176
F-0.002888746754059765
tp276
abag0
(g11
g2
Ntp277
Rp278
(lp279
(F0.26164728653691327
F-0.2416970383306209
F1.1948522919927125
tp280
a(F0.0016958558706219903
F0.0011137456221326529
F-0.0030051846032381683
tp281
abag0
(g11
g2
Ntp282
Rp283
(lp284
(F0.2633097985296426
F-0.24061471479036
F1.1918105521631475
tp285
a(F0.0016130636243526968
F0.0010357976899596465
F-0.003095081371747371
tp286
abag0
(g11
g2
Ntp287
Rp288
(lp289
(F0.2648840003309215
F-0.23963598232643063
F1.188689220323184
tp290
a(F0.001516628559208793
F0.0008944039020843802
F-0.0031594604615516903
tp291
abag0
(g11
g2
Ntp292
Rp293
(lp294
(F0.26635652969056184
F-0.2388205282448243
F1.1855128661683458
tp295
a(F0.0014072472731967117
F0.0006988757374035675
F-0.0032006718813340222
tp296
abag0
(g11
g2
Ntp297
Rp298
(lp299
(F0.2677150102218661
F-0.23821727035713475
F1.1823032647994822
tp300
a(F0.0012863320909858298
F0.00046213127809700225
F-0.003222165469510369
tp301
abag0
(g11
g2
Ntp302
Rp303
(lp304
(F0.2689487350645266
F-0.23786112885148564
F1.179078416763662
tp305
a(F0.0011559316002656944
F0.00019975802512618655
F-0.0032281940758788403
tp306
abag0
(g11
g2
Ntp307
Rp308
(lp309
(F0.2700492556245357
F-0.23777080308345064
F1.175851884593351
tp310
a(F0.0010186129440964977
F-7.109175766521471e-05
F-0.003223468089923038
tp311
abag0
(g11
g2
Ntp312
Rp313
(lp314
(F0.27101084063762076
F-0.23794768919675707
F1.1726324846671445
tp315
a(F0.0008773145133444894
F-0.0003328950390387802
F-0.003212785649887861
tp316
abag0
(g11
g2
Ntp317
Rp318
(lp319
(F0.27183078013851625
F-0.2383759944150013
F1.1694243483688969
tp320
a(F0.0007351793936485081
F-0.0005689584434549251
F-0.003200664130591405
tp321
abag0
(g11
g2
Ntp322
Rp323
(lp324
(F0.2725095196648479
F-0.23902402130822467
F1.1662273411152306
tp325
a(F0.0005953808898034213
F-0.0007645431302399322
F-0.0031909980308812086
tp326
abag0
(g11
g2
Ntp327
Rp328
(lp329
(F0.2730506214219838
F-0.2398465159880185
F1.163037803571145
tp330
a(F0.0004609516334507625
F-0.0009078386575651231
F-0.003186766222991352
tp331
abag0
(g11
g2
Ntp332
Rp333
(lp334
(F0.27346056040261674
F-0.24078790336565578
F1.1598495578922645
tp335
a(F0.00033462718794794024
F-0.0009907218846123603
F-0.0031898078571791643
tp336
abag0
(g11
g2
Ntp337
Rp338
(lp339
(F0.27374837384213585
F-0.24178617499376967
F1.1566551045213107
tp340
a(F0.0002187137594128094
F-0.0010092526468951772
F-0.0032006813060174322
tp341
abag0
(g11
g2
Ntp342
Rp343
(lp344
(F0.27392519122889963
F-0.24277715430194902
F1.1534469230248414
tp345
a(F0.00011498771354862634
F-0.0009638766433905818
F-0.003218614732659478
tp346
abag0
(g11
g2
Ntp347
Rp348
(lp349
(F0.27400367883176213
F-0.24369884271885045
F1.15021878441228
tp350
a(F2.4632229921879066e-05
F-0.0008593263790841368
F-0.003241550579567309
tp351
abag0
(g11
g2
Ntp352
Rp353
(lp354
(F0.27399743696688705
F-0.24449554937799292
F1.1469669826470434
tp355
a(F-5.1786228326998586e-05
F-0.00070423169866844
F-0.003266279928110706
tp356
abag0
(g11
g2
Ntp357
Rp358
(lp359
(F0.2739203897918858
F-0.24512152654879316
F1.1436913995250462
tp360
a(F-0.00011430170357618116
F-0.0005104710166053712
F-0.0032886567015554366
tp361
abag0
(g11
g2
Ntp362
Rp363
(lp364
(F0.2737862062653588
F-0.24554387096647187
F1.140396329231322
tp365
a(F-0.0001634955279004344
F-0.00029231148543955706
F-0.0033038764690439767
tp366
abag0
(g11
g2
Ntp367
Rp368
(lp369
(F0.2736077872058634
F-0.2457445049673513
F1.137091005791663
tp370
a(F-0.00020041123309900172
F-6.539992488139184e-05
F-0.0033068004933552407
tp371
abag0
(g11
g2
Ntp372
Rp373
(lp374
(F0.27339684745616005
F-0.2457211168646197
F1.1337897971087223
tp375
a(F-0.00022644468983051014
F0.00015432450460988687
F-0.0032923029082926494
tp376
abag0
(g11
g2
Ntp377
Rp378
(lp379
(F0.2731636144774729
F-0.24548701268216655
F1.130512051887324
tp380
a(F-0.00024321800797632656
F0.0003517207075417405
F-0.003255617674949887
tp381
abag0
(g11
g2
Ntp382
Rp383
(lp384
(F0.2729166558410322
F-0.24506990614938115
F1.1272816089679805
tp385
a(F-0.00025244653409679574
F0.000513464941758944
F-0.003192662307668351
tp386
abag0
(g11
g2
Ntp387
Rp388
(lp389
(F0.2726628386904178
F-0.24450974563641262
F1.1241260008423288
tp390
a(F-0.00025580842358192274
F0.0006289307936569185
F-0.003100317231312466
tp391
abag0
(g11
g2
Ntp392
Rp393
(lp394
(F0.27240741497657656
F-0.2438557406531798
F1.121075402950851
tp395
a(F-0.00025482575389150215
F0.0006908721778355044
F-0.0029766428809834366
tp396
abag0
(g11
g2
Ntp397
Rp398
(lp399
(F0.27215421774932963
F-0.24316280243191832
F1.118161396480215
tp400
a(F-0.00025076503433919735
F0.0006958659768682119
F-0.002821021043096206
tp401
abag0
(g11
g2
Ntp402
Rp403
(lp404
(F0.2719059465870635
F-0.2424876496330685
F1.115415623772747
tp405
a(F-0.00024456334981869994
F0.0006444879308125401
F-0.002634212150353211
tp406
abag0
(g11
g2
Ntp407
Rp408
(lp409
(F0.2716645148168557
F-0.24188484912509312
F1.1128684214545115
tp410
a(F-0.00023678437543704148
F0.0005412138999078285
F-0.0024183259201417374
tp411
abag0
(g11
g2
Ntp412
Rp413
(lp414
(F0.27143142784328766
F-0.24140306208741108
F1.1105475166742873
tp415
a(F-0.0002276062637878994
F0.00039405737815205016
F-0.0021767084791122966
tp416
abag0
(g11
g2
Ntp417
Rp418
(lp419
(F0.27120816083587673
F-0.2410817476467714
F1.1084768665028664
tp420
a(F-0.00021684109637968237
F0.00021397185525099915
F-0.0019137545607027502
tp421
abag0
(g11
g2
Ntp422
Rp423
(lp424
(F0.2709965052324058
F-0.24094854139403826
F1.1066757100244886
tp425
a(F-0.00020398336640356163
F1.4062125754752472e-05
F-0.001634658139221233
tp426
abag0
(g11
g2
Ntp427
Rp428
(lp429
(F0.2707988568515365
F-0.24101747706911364
F1.1051578877510415
tp430
a(F-0.0001882829725425306
F-0.00019133908749793756
F-0.0013451186669168843
tp431
abag0
(g11
g2
Ntp432
Rp433
(lp434
(F0.27061842358317484
F-0.2412881599946519
F1.1039314647744252
tp435
a(F-0.00016883658388116448
F-0.0003876645723510123
F-0.0010510226731298825
tp436
abag0
(g11
g2
Ntp437
Rp438
(lp439
(F0.2704593372297908
F-0.24174593469670463
F1.1029986738143653
tp440
a(F-0.00014469008676380103
F-0.000561107756290146
F-0.0007581217163402556
tp441
abag0
(g11
g2
Ntp442
Rp443
(lp444
(F0.2703266616083938
F-0.2423630211532128
F1.102356173401942
tp445
a(F-0.00011494421352091521
F-0.000699552092550451
F-0.00047172749387780526
tp446
abag0
(g11
g2
Ntp447
Rp448
(lp449
(F0.2702262969409738
F-0.24310052889239084
F1.1019955962652503
tp450
a(F-7.885540964709237e-05
F-0.0007933727603071636
F-0.00019644334941606116
tp451
abag0
(g11
g2
Ntp452
Rp453
(lp454
(F0.27016478829749024
F-0.24391120009349473
F1.1019043448786656
tp455
a(F-3.592450992419895e-05
F-0.0008360583315996771
F6.405139396735712e-05
tp456
abag0
(g11
g2
Ntp457
Rp458
(lp459
(F0.2701490528721814
F-0.24474268573956398
F1.1020665762632607
tp460
a(F1.4033183240971587e-05
F-0.0008246130444187806
F0.0003071516953267859
tp461
abag0
(g11
g2
Ntp462
Rp463
(lp464
(F0.2701860466954299
F-0.24554112574984643
F1.102464307406512
tp465
a(F7.084137660264177e-05
F-0.0007597157664855316
F0.0005314036781200055
tp466
abag0
(g11
g2
Ntp467
Rp468
(lp469
(F0.2702823956273404
F-0.2462547868992112
F1.1030785667320042
tp470
a(F0.00013394300904940104
F-0.0006456285537007846
F0.000736505200171495
tp471
abag0
(g11
g2
Ntp472
Rp473
(lp474
(F0.2704440178808407
F-0.24683751211885432
F1.1038905161893797
tp475
a(F0.00020240845778415323
F-0.0004898647416280663
F0.0009232323077071142
tp476
abag0
(g11
g2
Ntp477
Rp478
(lp479
(F0.2706757657499876
F-0.24725175121513054
F1.1048824727002269
tp480
a(F0.00027497096214881405
F-0.00030264260245068157
F0.0010932986423029124
tp481
abag0
(g11
g2
Ntp482
Rp483
(lp484
(F0.27098111268111963
F-0.24747097476743357
F1.1060387665000295
tp485
a(F0.00035008658802937356
F-9.61646805990532e-05
F0.001249159163433451
tp486
abag0
(g11
g2
Ntp487
Rp488
(lp489
(F0.2713619084643477
F-0.2474813175866401
F1.1073463866692654
tp490
a(F0.0004260143657897654
F0.00011622593191411415
F0.0013937729879777649
tp491
abag0
(g11
g2
Ntp492
Rp493
(lp494
(F0.27181822040760567
F-0.2472823524141364
F1.1087953799067118
tp495
a(F0.0005009108787396551
F0.00032095361098275453
F0.0015303425178824588
tp496
abag0
(g11
g2
Ntp497
Rp498
(lp499
(F0.27234827225444735
F-0.24688695469672303
F1.1103789862404791
tp500
a(F0.0005729326445355089
F0.0005051203173486286
F0.0016620471906330103
tp501
abag0
(g11
g2
Ntp502
Rp503
(lp504
(F0.2729484857642043
F-0.24632028112904478
F1.1120935136691292
tp505
a(F0.0006403391752508462
F0.0006573564598138666
F0.0017917900906322239
tp506
abag0
(g11
g2
Ntp507
Rp508
(lp509
(F0.27361362277614665
F-0.2456179440085813
F1.1139379714294346
tp510
a(F0.0007015896457960855
F0.0007685561132703342
F0.0019219743353968762
tp511
abag0
(g11
g2
Ntp512
Rp513
(lp514
(F0.27433701872364835
F-0.24482351633111468
F1.1159134975174558
tp515
a(F0.0007554266327766214
F0.0008324488918019841
F0.002054323713208579
tp516
abag0
(g11
g2
Ntp517
Rp518
(lp519
(F0.27511089242018844
F-0.2439855455001485
F1.1180226292082778
tp520
a(F0.0008009413613146903
F0.000845972549903361
F0.002189758685944639
tp521
abag0
(g11
g2
Ntp522
Rp523
(lp524
(F0.27592671191907836
F-0.24315428379199694
F1.1202684748007554
tp525
a(F0.0008376162408578384
F0.0008094243941503257
F0.0023283348285954215
tp526
abag0
(g11
g2
Ntp527
Rp528
(lp529
(F0.27677559268125645
F-0.24237835946934144
F1.1226538500938112
tp530
a(F0.0008653420837479145
F0.000726384851494403
F0.002469246342898354
tp531
abag0
(g11
g2
Ntp532
Rp533
(lp534
(F0.27764870239295025
F-0.24170161283996425
F1.12518044391291
tp535
a(F0.000884409166892546
F0.0006034220079379148
F0.0026108927649619047
tp536
abag0
(g11
g2
Ntp537
Rp538
(lp539
(F0.2785376466612585
F-0.24116030683364606
F1.1278480733903193
tp540
a(F0.0008954730933988087
F0.00044960055515732655
F0.00275100269377019
tp541
abag0
(g11
g2
Ntp542
Rp543
(lp544
(F0.27943481146071075
F-0.24078089305609954
F1.1306540820011717
tp545
a(F0.000899498113814901
F0.00027583138911244635
F0.0028868045859467483
tp546
abag0
(g11
g2
Ntp547
Rp548
(lp549
(F0.2803336414673969
F-0.2405784739292043
F1.1335929221803498
tp550
a(F0.0008976820606232738
F9.41082587513673e-05
F0.003015231638827513
tp551
abag0
(g11
g2
Ntp552
Rp553
(lp554
(F0.2812288380506208
F-0.24055605235387864
F1.1366559505281149
tp555
a(F0.0008913682360968637
F-8.331527781847992e-05
F0.003133145709316426
tp556
abag0
(g11
g2
Ntp557
Rp558
(lp559
(F0.28211646635695703
F-0.2407046057961819
F1.1398314481534453
tp560
a(F0.0008819503965796102
F-0.00024475217740154706
F0.0032375642127262056
tp561
abag0
(g11
g2
Ntp562
Rp563
(lp564
(F0.2829939672149592
F-0.2410039655650125
F1.1431048626939082
tp565
a(F0.0008707773472131681
F-0.0003798558059355102
F0.003325874061328159
tp566
abag0
(g11
g2
Ntp567
Rp568
(lp569
(F0.2838600760712216
F-0.24142442813392853
F1.1464592530964446
tp570
a(F0.0008590635819592924
F-0.0004802901419939899
F0.003396017907228939
tp571
abag0
(g11
g2
Ntp572
Rp573
(lp574
(F0.2847146573950808
F-0.24192897726146437
F1.1498759043926121
tp575
a(F0.0008478118873353497
F-0.00054025286369229
F0.0034466401455353506
tp576
abag0
(g11
g2
Ntp577
Rp578
(lp579
(F0.28555846853982486
F-0.24247595653386783
F1.1533350683731716
tp580
a(F0.000837752917050875
F-0.0005568185299426708
F0.0034771831434567573
tp581
abag0
(g11
g2
Ntp582
Rp583
(lp584
(F0.28639287155577486
F-0.2430220042849121
F1.1568167779896243
tp585
a(F0.000829305507341377
F-0.000530081742111311
F0.003487927768336751
tp586
abag0
(g11
g2
Ntp587
Rp588
(lp589
(F0.28721951462505785
F-0.24352504831864177
F1.1603016789781408
tp590
a(F0.0008225600289187314
F-0.000463093996819184
F0.003479976235257187
tp591
abag0
(g11
g2
Ntp592
Rp593
(lp594
(F0.28804000643494293
F-0.24394715723763288
F1.1637718218430915
tp595
a(F0.0008172854653443715
F-0.00036160196310072707
F0.003455179306959012
tp596
abag0
(g11
g2
Ntp597
Rp598
(lp599
(F0.28885560683905454
F-0.24425705827564542
F1.167211360906339
tp600
a(F0.0008129592807602227
F-0.00023360818776392683
F0.003416013680076665
tp601
abag0
(g11
g2
Ntp602
Rp603
(lp604
(F0.2896669555977086
F-0.24443215724056105
F1.1706071143102166
tp605
a(F0.0008088176032863663
F-8.878686820867097e-05
F0.0033654187260489577
tp606
abag0
(g11
g2
Ntp607
Rp608
(lp609
(F0.2904738579719117
F-0.2444599325493738
F1.1739489491010422
tp610
a(F0.0008039219070083705
F6.220342641566494e-05
F0.0033066044028425973
tp611
abag0
(g11
g2
Ntp612
Rp613
(lp614
(F0.2912751416990805
F-0.24433861975155713
F1.1772299680610891
tp615
a(F0.000797237313458572
F0.00020846194159798766
F0.0032428439457341134
tp616
abag0
(g11
g2
Ntp617
Rp618
(lp619
(F0.2920685947109578
F-0.24407715226065074
F1.1804464889009367
tp620
a(F0.0007877169203760869
F0.00033959177644321743
F0.003177265774028078
tp621
abag0
(g11
g2
Ntp622
Rp623
(lp624
(F0.29285098723169645
F-0.24369437483655756
F1.1835978207911642
tp625
a(F0.0007743862440146536
F0.00044639930343969583
F0.0031126588754659
tp626
abag0
(g11
g2
Ntp627
Rp628
(lp629
(F0.29361817601451073
F-0.2432175952276189
F1.1866858570103276
tp630
a(F0.0007564219467593858
F0.0005215004777984362
F0.0030513047800430093
tp631
abag0
(g11
g2
Ntp632
Rp633
(lp634
(F0.2943652828406514
F-0.24268058302544832
F1.1897145147783683
tp635
a(F0.0007332195018362668
F0.0005597945988286061
F0.0029948472048305095
tp636
abag0
(g11
g2
Ntp637
Rp638
(lp639
(F0.29508693439351663
F-0.24212116034619993
F1.1926890633128606
tp640
a(F0.0007044452824146166
F0.0005587756861202674
F0.002944207694438497
tp641
abag0
(g11
g2
Ntp642
Rp643
(lp644
(F0.2957775465637438
F-0.24157855416136687
F1.1956153881438278
tp645
a(F0.0006700696909126042
F0.0005186630904557531
F0.002899552298224679
tp646
abag0
(g11
g2
Ntp647
Rp648
(lp649
(F0.29643163339826833
F-0.24109069342722103
F1.1984992433187516
tp650
a(F0.0006303792844900769
F0.0004423454695090153
F0.0028603107481128256
tp651
abag0
(g11
g2
Ntp652
Rp653
(lp654
(F0.29704411945115977
F-0.24069163489980605
F1.2013455431297928
tp655
a(F0.0005859673102232741
F0.0003351449597162085
F0.0028252459790330366
tp656
abag0
(g11
g2
Ntp657
Rp658
(lp659
(F0.2976106343031845
F-0.24040928982855553
F1.204157741455774
tp660
a(F0.0005377035375857702
F0.0002044204075875738
F0.002792568415631078
tp661
abag0
(g11
g2
Ntp662
Rp663
(lp664
(F0.29812776946665315
F-0.24026360058943633
F1.2069373400286794
tp665
a(F0.0004866856664344577
F5.903908481697542e-05
F0.0027600864642645688
tp666
abag0
(g11
g2
Ntp667
Rp668
(lp669
(F0.29859328066108987
F-0.24026528349731588
F1.2096835574217106
tp670
a(F0.0004341758028614665
F-9.124528713911492e-05
F0.002725382295429059
tp671
abag0
(g11
g2
Ntp672
Rp673
(lp674
(F0.29900622232512797
F-0.24041521390187257
F1.2123931790050417
tp675
a(F0.000381526453648648
F-0.00023646466769445724
F0.002686000429562716
tp676
abag0
(g11
g2
Ntp677
Rp678
(lp679
(F0.29936700594042687
F-0.240704485051642
F1.2150605953466194
tp680
a(F0.00033010113190805996
F-0.00036711277115824095
F0.002639635943969248
tp681
abag0
(g11
g2
Ntp682
Rp683
(lp684
(F0.29967737895230234
F-0.2411151261930463
F1.2176780234394669
tp685
a(F0.00028119495349945866
F-0.00047477936008719323
F0.0025843093344638506
tp686
abag0
(g11
g2
Ntp687
Rp688
(lp689
(F0.2999403264187749
F-0.24162142108572843
F1.2202358926135823
tp690
a(F0.00023596052232482284
F-0.0005527006012263905
F0.0025185161638108175
tp691
abag0
(g11
g2
Ntp692
Rp693
(lp694
(F0.30015990264099807
F-0.24219172852429927
F1.2227233658867447
tp695
a(F0.0001953439641160795
F-0.0005961896829649137
F0.002441341521965879
tp696
abag0
(g11
g2
Ntp697
Rp698
(lp699
(F0.30034100458085355
F-0.24279067415637232
F1.2251289585619511
tp700
a(F0.00016003520832928277
F-0.0006029205624739236
F0.0023525318697243955
tp701
abag0
(g11
g2
Ntp702
Rp703
(lp704
(F0.3004891025572313
F-0.2433815599393951
F1.2274412096695209
tp705
a(F0.00013043559288074903
F-0.0005730480702772147
F0.002252519854446321
tp706
abag0
(g11
g2
Ntp707
Rp708
(lp709
(F0.30060994629602594
F-0.2439288253808718
F1.2296493587637392
tp710
a(F0.00010664465034005899
F-0.0005091589227167718
F0.002142400961694796
tp711
abag0
(g11
g2
Ntp712
Rp713
(lp714
(F0.3007092657334015
F-0.24440039390596244
F1.231743980783834
tp715
a(F8.846661218976541e-05
F-0.00041605969823237674
F0.0020238641731574296
tp716
abag0
(g11
g2
Ntp717
Rp718
(lp719
(F0.3007924859683433
F-0.24476974816069139
F1.2337175351173109
tp720
a(F7.543583099030636e-05
F-0.0003004187415773372
F0.0018990819136620752
tp721
abag0
(g11
g2
Ntp722
Rp723
(lp724
(F0.30086447445077025
F-0.24501759889707028
F1.2355647913816965
tp725
a(F6.685905937219495e-05
F-0.00017028854410104796
F0.0017705672795591014
tp726
abag0
(g11
g2
Ntp727
Rp728
(lp729
(F0.3009293359853409
F-0.24513304172122308
F1.237283103293485
tp730
a(F6.187142372108519e-05
F-3.454278238916686e-05
F0.0016410086688159271
tp731
abag0
(g11
g2
Ntp732
Rp733
(lp734
(F0.30099026761743347
F-0.24511413227163972
F1.2388725126840263
tp735
a(F5.9502061042825505e-05
F9.77326018960694e-05
F0.0015130933435848718
tp736
abag0
(g11
g2
Ntp737
Rp738
(lp739
(F0.301049481200529
F-0.24496785077233502
F1.2403356774989882
tp740
a(F5.8744804771526565e-05
F0.00021785244268818005
F0.0013893320632274789
tp741
abag0
(g11
g2
Ntp742
Rp743
(lp744
(F0.30110819672406636
F-0.24470946858077144
F1.2416776296655803
tp745
a(F5.862904390894203e-05
F0.00031810808307322755
F0.0012718967000431463
tp746
abag0
(g11
g2
Ntp747
Rp748
(lp749
(F0.30116670463415623
F-0.2443613694867642
F1.242905380207934
tp750
a(F5.8285952259560595e-05
F0.0003922675762804983
F0.0011624817184391562
tp751
abag0
(g11
g2
Ntp752
Rp753
(lp754
(F0.30122449073591356
F-0.24395141443038004
F1.244027399162945
tp755
a(F5.7005680288230886e-05
F0.0004359678603987926
F0.001062198642419825
tp756
abag0
(g11
g2
Ntp757
Rp758
(lp759
(F0.30128041313605763
F-0.24351096763752497
F1.2450530060243952
tp760
a(F5.428178921953928e-05
F0.0004469742458291604
F0.0009715102854017599
tp761
abag0
(g11
g2
Ntp762
Rp763
(lp764
(F0.3013329173384787
F-0.24307272304810884
F1.2459917120949935
tp765
a(F4.9840134194985186e-05
F0.00042529192461460895
F0.000890208738245336
tp766
abag0
(g11
g2
Ntp767
Rp768
(lp769
(F0.3013802732568818
F-0.24266848106187683
F1.2468525589053636
tp770
a(F4.36505039873734e-05
F0.0003731244600452425
F0.0008174381002833306
tp771
abag0
(g11
g2
Ntp772
Rp773
(lp774
(F0.3014208166996735
F-0.24232702645770704
F1.2476434966166525
tp775
a(F3.5920521687584836e-05
F0.0002946846363356442
F0.0007517599012187481
tp776
abag0
(g11
g2
Ntp777
Rp778
(lp779
(F0.30145317787585885
F-0.24207224896699323
F1.2483708431167635
tp780
a(F2.7072521433829824e-05
F0.00019587293457523384
F0.0006912563049682376
tp781
abag0
(g11
g2
Ntp782
Rp783
(lp784
(F0.30147648064743676
F-0.2419216292021826
F1.2490388586064014
tp785
a(F1.770525857964428e-05
F8.384759306707005e-05
F0.0006336637005640065
tp786
abag0
(g11
g2
Ntp787
Rp788
(lp789
(F0.3014904985145487
F-0.24188518588174232
F1.2496494622868535
tp790
a(F8.54330859508899e-06
F-3.348286046124117e-05
F0.0005765273329469321
tp791
abag0
(g11
g2
Ntp792
Rp793
(lp794
(F0.30149575649369537
F-0.24196494749312328
F1.250202107890658
tp795
a(F3.7779838620254133e-07
F-0.00014800899017287925
F0.0005173663322747613
tp796
abag0
(g11
g2
Ntp797
Rp798
(lp799
(F0.3014935719070488
F-0.24215497501271716
F1.2506938239287464
tp800
a(F-5.997357235064118e-06
F-0.0002519738911958416
F0.00045383794232526324
tp801
abag0
(g11
g2
Ntp802
Rp803
(lp804
(F0.3014860313701598
F-0.24244192458734082
F1.2511194134104602
tp805
a(F-9.849302960735175e-06
F-0.00033849318651095326
F0.0003838899539110733
tp806
abag0
(g11
g2
Ntp807
Rp808
(lp809
(F0.30147590565082527
F-0.24280610274578274
F1.2514717971795026
tp810
a(F-1.0565827142662305e-05
F-0.0004020069681646876
F0.0003058912932065149
tp811
abag0
(g11
g2
Ntp812
Rp813
(lp814
(F0.3014665082752258
F-0.24322293418666935
F1.2517424756080695
tp815
a(F-7.706692093057493e-06
F-0.0004386342499964666
F0.00021873232328666802
tp816
abag0
(g11
g2
Ntp817
Rp818
(lp819
(F0.30146150749769385
F-0.2436647356180449
F1.2519220758199125
tp820
a(F-1.043340107366275e-06
F-0.0004464075862219379
F0.00012188857202909823
tp821
abag0
(g11
g2
Ntp822
Rp823
(lp824
(F0.3014647042827385
F-0.24410267020493734
F1.2520009463555486
tp825
a(F9.415557829488553e-06
F-0.00042537399339387204
F1.5444147753187536e-05
tp826
abag0
(g11
g2
Ntp827
Rp828
(lp829
(F0.3014797910794126
F-0.2445087470688153
F1.2519697585709864
tp830
a(F2.341424951402499e-05
F-0.00037755759581239876
F-9.992613175059308e-05
tp831
abag0
(g11
g2
Ntp832
Rp833
(lp834
(F0.3015101072702812
F-0.24485772951757157
F1.2518200742147942
tp835
a(F4.045620312000025e-05
F-0.0003067888552335399
F-0.00022301408005272284
tp836
abag0
(g11
g2
Ntp837
Rp838
(lp839
(F0.30155840719362
F-0.24512882416548412
F1.2515448415078478
tp840
a(F5.982592802830424e-05
F-0.0002184142031738122
F-0.0003521705063142587
tp841
abag0
(g11
g2
Ntp842
Rp843
(lp844
(F0.3016266555861759
F-0.2453070401042686
F1.2511387874237865
tp845
a(F8.062464964337252e-05
F-0.00011890776966033386
F-0.000485425862609087
tp846
abag0
(g11
g2
Ntp847
Rp848
(lp849
(F0.3017158632652251
F-0.24538413151845503
F1.250598681339842
tp850
a(F0.00010181727403562994
F-1.5413180152939204e-05
F-0.0006206306252990384
tp851
abag0
(g11
g2
Ntp852
Rp853
(lp854
(F0.3018259730180099
F-0.2453590668417213
F1.2499234542659876
tp855
a(F0.0001222873696989064
F8.47523268438842e-05
F-0.0007556056521012879
tp856
abag0
(g11
g2
Ntp857
Rp858
(lp859
(F0.3019558022025137
F-0.24523800062407144
F1.24911416783663
tp860
a(F0.00014089642054921934
F0.00017459718312528525
F-0.0008882922188059103
tp861
abag0
(g11
g2
Ntp862
Rp863
(lp864
(F0.30210304473275545
F-0.2450337584268973
F1.2481738374811595
tp865
a(F0.00015654339479970373
F0.0002479242269743884
F-0.0010168915994977698
tp866
abag0
(g11
g2
Ntp867
Rp868
(lp869
(F0.3022643311920446
F-0.24476487795201163
F1.2471071239886327
tp870
a(F0.00016822073839307318
F0.00029973757041386795
F-0.0011399848902479868
tp871
abag0
(g11
g2
Ntp872
Rp873
(lp874
(F0.302435342058865
F-0.24445427903213146
F1.2459199163982295
tp875
a(F0.00017506323030983207
F0.00032656098366293587
F-0.0012566252220933677
tp876
abag0
(g11
g2
Ntp877
Rp878
(lp879
(F0.3026109656959955
F-0.24412765912455464
F1.24461883621417
tp880
a(F0.0001763867034169859
F0.0003266476203979478
F-0.0013663964583355123
tp881
abag0
(g11
g2
Ntp882
Rp883
(lp884
(F0.3027854900645942
F-0.24381172801461742
F1.2432106979140116
tp885
a(F0.00017171439585191215
F0.00030006861077324856
F-0.0014694347852824128
tp886
abag0
(g11
g2
Ntp887
Rp888
(lp889
(F0.3029528152538603
F-0.24353240450400745
F1.2417019632927693
tp890
a(F0.0001607895988106679
F0.0002486764763464963
F-0.0015664121237894551
tp891
abag0
(g11
g2
Ntp892
Rp893
(lp894
(F0.30310667297715177
F-0.24331309844268312
F1.2400982272273282
tp895
a(F0.00014357424283138523
F0.00017594788947287513
F-0.0016584828395357217
tp896
abag0
(g11
g2
Ntp897
Rp898
(lp899
(F0.3032408392247735
F-0.24317319365638107
F1.238403769993001
tp900
a(F0.00012023404776900034
F8.671842633471976e-05
F-0.0017471976417867971
tp901
abag0
(g11
g2
Ntp902
Rp903
(lp904
(F0.30334932726145664
F-0.2431268317861649
F1.2366212065197517
tp905
a(F9.111178364502142e-05
F-1.3170896470588051e-05
F-0.0018343906745404452
tp906
abag0
(g11
g2
Ntp907
Rp908
(lp909
(F0.3034265500262833
F-0.2431820749675203
F1.2347512562923384
tp910
a(F5.66909875154506e-05
F-0.0001172898257315524
F-0.001922047484221853
tp911
abag0
(g11
g2
Ntp912
Rp913
(lp914
(F0.3034674435887878
F-0.24334049823552856
F1.2327926494526114
tp915
a(F1.7553101841959897e-05
F-0.0002190684712192836
F-0.002012162689778835
tp916
abag0
(g11
g2
Ntp917
Rp918
(lp919
(F0.3034675464430849
F-0.2435972324620018
F1.230742175619014
tp920
a(F-2.5668598150133288e-05
F-0.00031224913974446666
F-0.0021065967174249737
tp921
abag0
(g11
g2
Ntp922
Rp923
(lp924
(F0.3034230328536004
F-0.24394144759907999
F1.2285948726133593
tp925
a(F-7.233476222424088e-05
F-0.0003913095689761188
F-0.002206940868543599
tp926
abag0
(g11
g2
Ntp927
Rp928
(lp929
(F0.3033307019543831
F-0.24435723614294538
F1.226344343301081
tp930
a(F-0.00012184197545222702
F-0.0004518291412912687
F-0.002314399283353012
tp931
abag0
(g11
g2
Ntp932
Rp933
(lp934
(F0.3031879276010001
F-0.24482483005039113
F1.223983180696877
tp935
a(F-0.00017365792448988536
F-0.0004907739655220996
F-0.0024296951036393436
tp936
abag0
(g11
g2
Ntp937
Rp938
(lp939
(F0.3029925768474864
F-0.2453220626030502
F1.221503474877999
tp940
a(F-0.00022734717589637353
F-0.000506682593749912
F-0.0025530064201344425
tp941
abag0
(g11
g2
Ntp942
Rp943
(lp944
(F0.3027429071703167
F-0.2458259713201884
F1.2188973704907449
tp945
a(F-0.000282585751582943
F-0.0004997411687228605
F-0.0026839355379935322
tp946
abag0
(g11
g2
Ntp947
Rp948
(lp949
(F0.302437454031686
F-0.2463144299207041
F1.2161576410081256
tp950
a(F-0.00033916353953202997
F-0.0004717444810735877
F-0.0028215128515423306
tp951
abag0
(g11
g2
Ntp952
Rp953
(lp954
(F0.30207492096584154
F-0.2467676969690449
F1.2132782455259985
tp955
a(F-0.00039697449470188495
F-0.00042594722341611604
F-0.002964234341316564
tp956
abag0
(g11
g2
Ntp957
Rp958
(lp959
(F0.3016540840470594
F-0.24716977611779323
F1.2102548357449583
tp960
a(F-0.0004559955012600155
F-0.0003668171293574352
F-0.0031101295461504704
tp961
abag0
(g11
g2
Ntp962
Rp963
(lp964
(F0.30117372138240794
F-0.247509497174416
F1.2070851847003419
tp965
a(F-0.0005162556191830365
F-0.000299708183815299
F-0.0032568549634598857
tp966
abag0
(g11
g2
Ntp967
Rp968
(lp969
(F0.30063257625487966
F-0.2477812474959084
F1.2037695144627496
tp970
a(F-0.0005777981668369976
F-0.00023047725976292616
F-0.003401806314233457
tp971
abag0
(g11
g2
Ntp972
Rp973
(lp974
(F0.3000293598664073
F-0.2479853079895069
F1.2003107070155448
tp975
a(F-0.0006406386461930165
F-0.0001650710451054134
F-0.003542242069531941
tp976
abag0
(g11
g2
Ntp977
Rp978
(lp979
(F0.29936279648466857
F-0.2481277755239487
F1.1967143903227893
tp980
a(F-0.0007047218607227981
F-0.0001091117587508899
F-0.0036754101321893047
tp981
abag0
(g11
g2
Ntp982
Rp983
(lp984
(F0.2986317104035867
F-0.2482200819270321
F1.192988899685482
tp985
a(F-0.0007698816842374111
F-6.750983409231864e-05
F-0.003798669622912039
tp986
abag0
(g11
g2
Ntp987
Rp988
(lp989
(F0.2978351507232493
F-0.24827814702567216
F1.1891451222938099
tp990
a(F-0.0008358068045465208
F-4.412952185067952e-05
F-0.003909600317587532
tp991
abag0
(g11
g2
Ntp992
Rp993
(lp994
(F0.2969725467795555
F-0.248321227541088
F1.1851962398977167
tp995
a(F-0.0009020153978750488
F-4.152941165611834e-05
F-0.004006093369167069
tp996
abag0
(g11
g2
Ntp997
Rp998
(lp999
(F0.29604388433079715
F-0.24837054347632506
F1.1811573902830805
tp1000
a(F-0.0009678411133069469
F-6.0794486239717694e-05
F-0.0040864184374341216
tp1001
abag0
(g11
g2
Ntp1002
Rp1003
(lp1004
(F0.29504989053063124
F-0.24844777764900086
F1.1770452723977607
tp1005
a(F-0.001032431999976108
F-0.00010146988974706101
F-0.004149264131807803
tp1006
abag0
(g11
g2
Ntp1007
Rp1008
(lp1009
(F0.2939922144341184
F-0.248573551364376
F1.1728777222811133
tp1010
a(F-0.0010947631434741942
F-0.00016159956369855545
F-0.004193750616720204
tp1011
abag0
(g11
g2
Ntp1012
Rp1013
(lp1014
(F0.29287358939192093
F-0.24876597949286
F1.1686732873054841
tp1015
a(F-0.001153662850097691
F-0.00023786576537156636
F-0.004219415198035809
tp1016
abag0
(g11
g2
Ntp1017
Rp1018
(lp1019
(F0.29169796422387223
F-0.24903940149713777
F1.164450824669489
tp1020
a(F-0.0012078512902204135
F-0.00032581871901314136
F-0.004226173565404168
tp1021
abag0
(g11
g2
Ntp1022
Rp1023
(lp1024
(F0.2904705915013998
F-0.24940337180453745
F1.160229146754319
tp1025
a(F-0.001255989647214501
F-0.00042017971287795807
F-0.004214260982672634
tp1026
abag0
(g11
g2
Ntp1027
Rp1028
(lp1029
(F0.2891980635229141
F-0.2498619743245785
F1.1560267311485797
tp1030
a(F-0.001296737073656348
F-0.0005151962344415917
F-0.004184158988763682
tp1031
abag0
(g11
g2
Ntp1032
Rp1033
(lp1034
(F0.287888289497011
F-0.25041350320856576
F1.151861507244341
tp1035
a(F-0.001328812181692422
F-0.000605024533854721
F-0.004136514012992592
tp1036
abag0
(g11
g2
Ntp1037
Rp1038
(lp1039
(F0.28655041086985206
F-0.25105052673457695
F1.147750724756249
tp1040
a(F-0.0013510554277608197
F-0.0006841135160193321
F-0.004072054671156038
tp1041
abag0
(g11
g2
Ntp1042
Rp1043
(lp1044
(F0.28519465542723293
F-0.2517603252203773
F1.1437109028025794
tp1045
a(F-0.0013624886179678492
F-0.0007475641599007536
F-0.0039915143755792975
tp1046
abag0
(g11
g2
Ntp1047
Rp1048
(lp1049
(F0.28383213453208356
F-0.25252566888774786
F1.1397578518000329
tp1050
a(F-0.001362367868606411
F-0.0007914407028904633
F-0.00389556528221221
tp1051
abag0
(g11
g2
Ntp1052
Rp1053
(lp1054
(F0.2824745913849884
F-0.25332587929915173
F1.1359067548190194
tp1055
a(F-0.0013502267000538015
F-0.0008130134439745455
F-0.003784768562369239
tp1056
abag0
(g11
g2
Ntp1057
Rp1058
(lp1059
(F0.28113411129201893
F-0.2541380998298666
F1.132172290616061
tp1060
a(F-0.0013259064997758563
F-0.0008109179434912839
F-0.0036595446063368586
tp1061
abag0
(g11
g2
Ntp1062
Rp1063
(lp1064
(F0.2798228073913673
F-0.2549386877910817
F1.1285687776078266
tp1065
a(F-0.0012895723257785676
F-0.0007852212760544951
F-0.003520165144314781
tp1066
abag0
(g11
g2
Ntp1067
Rp1068
(lp1069
(F0.27855249696881984
F-0.25570463407000876
F1.125110316770519
tp1070
a(F-0.001241712888589161
F-0.0007373924139740633
F-0.0033667675259950397
tp1071
abag0
(g11
g2
Ntp1072
Rp1073
(lp1074
(F0.2773343842731988
F-0.25641491586460247
F1.1218109119103647
tp1075
a(F-0.0011831244924583313
F-0.0006701803378012308
F-0.0031993896595261784
tp1076
abag0
(g11
g2
Ntp1077
Rp1078
(lp1079
(F0.27617876557486276
F-0.2570516941823496
F1.1186845479020053
tp1080
a(F-0.001114879675072288
F-0.0005874096449401939
F-0.0030180224978771657
tp1081
abag0
(g11
g2
Ntp1082
Rp1083
(lp1084
(F0.2750947711016863
F-0.2576012797326537
F1.115745211157821
tp1085
a(F-0.001038282199044216
F-0.0004937088430551159
F-0.002822675589541604
tp1086
abag0
(g11
g2
Ntp1087
Rp1088
(lp1089
(F0.2740901565054541
F-0.2580548077681943
F1.1130068414922945
tp1090
a(F-0.000954810860407698
F-0.0003941908163101442
F-0.0026134501767893655
tp1091
abag0
(g11
g2
Ntp1092
Rp1093
(lp1094
(F0.27317115377977746
F-0.2584085830965887
F1.1104832103153566
tp1095
a(F-0.0008660552387059777
F-0.0002941078642600926
F-0.002390613699383277
tp1096
abag0
(g11
g2
Ntp1097
Rp1098
(lp1099
(F0.27234238823741763
F-0.25866407942871095
F1.1081877263018474
tp1100
a(F-0.0007736469795528144
F-0.00019850505880425183
F-0.0021546693866982118
tp1101
abag0
(g11
g2
Ntp1102
Rp1103
(lp1104
(F0.2716068644646933
F-0.2588276008604961
F1.1061331758863893
tp1105
a(F-0.000679190445775497
F-0.00011189537632767556
F-0.001906414906540335
tp1106
abag0
(g11
g2
Ntp1107
Rp1108
(lp1109
(F0.2709660203300659
F-0.2589096359848763
F1.1043314116727014
tp1110
a(F-0.0005841965836999116
F-3.797818426841156e-05
F-0.0016469847624838525
tp1111
abag0
(g11
g2
Ntp1112
Rp1113
(lp1114
(F0.27041984436734523
F-0.25892395537123863
F1.102793006706722
tp1115
a(F-0.0004900236280157072
F2.0580654481421518e-05
F-0.0013778722406644986
tp1116
abag0
(g11
g2
Ntp1117
Rp1118
(lp1119
(F0.269967048408392
F-0.25888651959331477
F1.1015268961901663
tp1120
a(F-0.0003978278278976831
F6.229330252357423e-05
F-0.001100928122663657
tp1121
abag0
(g11
g2
Ntp1122
Rp1123
(lp1124
(F0.2696052844114558
F-0.2588142765730201
F1.1005400303390849
tp1125
a(F-0.00030852674812624394
F8.691071022028842e-05
F-0.000818335003560479
tp1126
abag0
(g11
g2
Ntp1127
Rp1128
(lp1129
(F0.2693313921910096
F-0.2587239330242751
F1.0998370625597071
tp1130
a(F-0.00022277692281799785
F9.539709543746892e-05
F-0.0005325577698482124
tp1131
abag0
(g11
g2
Ntp1132
Rp1133
(lp1134
(F0.2691416633302237
F-0.25863078490409724
F1.0994200958764515
tp1135
a(F-0.00014096676577977118
F8.98215579952882e-05
F-0.00024627248130005663
tp1136
abag0
(g11
g2
Ntp1137
Rp1138
(lp1139
(F0.269032106023241
F-0.25854768609151424
F1.099288507677959
tp1140
a(F-6.322472565730272e-05
F7.317586179739715e-05
F3.7722552968975956e-05
tp1141
abag0
(g11
g2
Ntp1142
Rp1143
(lp1144
(F0.2689986959703076
F-0.258484223496334
F1.0994388685326755
tp1145
a(F1.0558226901344804e-05
F4.9132329714368414e-05
F0.0003166084176591334
tp1146
abag0
(g11
g2
Ntp1147
Rp1148
(lp1149
(F0.2690375996973208
F-0.25844615128455467
F1.099864965351636
tp1150
a(F8.069352350856993e-05
F2.1759679716266615e-05
F0.0005876539095403891
tp1151
abag0
(g11
g2
Ntp1152
Rp1153
(lp1154
(F0.2691453587018921
F-0.2584351180251474
F1.1005579329080204
tp1155
a(F0.00014764978735855647
F-4.78276493490382e-06
F0.0008483239333688526
tp1156
abag0
(g11
g2
Ntp1157
Rp1158
(lp1159
(F0.26931902550320463
F-0.25844869965784784
F1.1015064910800967
tp1160
a(F0.0002120004891012626
F-2.6550893179540696e-05
F0.0010963812665136005
tp1161
abag0
(g11
g2
Ntp1162
Rp1163
(lp1164
(F0.269556245817889
F-0.25848072971645203
F1.1026972786112346
tp1165
a(F0.00027436782527464135
F-4.010038599657306e-05
F0.00132997532100067
tp1166
abag0
(g11
g2
Ntp1167
Rp1168
(lp1169
(F0.26985528449806007
F-0.25852189769779094
F1.1041152681175774
tp1170
a(F0.0003353663180687706
F-4.273058098148959e-05
F0.001547712295409837
tp1171
abag0
(g11
g2
Ntp1172
Rp1173
(lp1174
(F0.2702149963368402
F-0.2585605682405385
F1.1057442419258796
tp1175
a(F0.0003955495614085296
F-3.26712444752759e-05
F0.0017487022470632646
tp1176
abag0
(g11
g2
Ntp1177
Rp1178
(lp1179
(F0.27063474615815547
F-0.2585837590901597
F1.1075673044342529
tp1180
a(F0.0004553632568396567
F-9.200057276419938e-06
F0.0019325800504509426
tp1181
abag0
(g11
g2
Ntp1182
Rp1183
(lp1184
(F0.271114285562355
F-0.25857820563798667
F1.1095674043156545
tp1185
a(F0.0005151072151779222
F2.7316414725351338e-05
F0.0020994988444689115
tp1186
abag0
(g11
g2
Ntp1187
Rp1188
(lp1189
(F0.2716535961245554
F-0.2585314347742437
F1.1117278391848773
tp1190
a(F0.0005749083792683655
F7.546009648143886e-05
F0.0022500962994681474
tp1191
abag0
(g11
g2
Ntp1192
Rp1193
(lp1194
(F0.2722527106023698
F-0.2584327711670843
F1.1140327163699633
tp1195
a(F0.0006347061913854474
F0.00013287350394870884
F0.002385435740493085
tp1196
abag0
(g11
g2
Ntp1197
Rp1198
(lp1199
(F0.2729115247120418
F-0.25827420477775465
F1.116467346099801
tp1200
a(F0.000694250833794335
F0.00019643781003154527
F0.0025069257328617076
tp1201
abag0
(g11
g2
Ntp1202
Rp1203
(lp1204
(F0.2736296122343604
F-0.2580510589874899
F1.1190185475640622
tp1205
a(F0.0007531140637593228
F0.0002625036474272562
F0.0026162230676356406
tp1206
abag0
(g11
g2
Ntp1207
Rp1208
(lp1209
(F0.2744060556223264
F-0.257762413358427
F1.1216748536463796
tp1210
a(F0.0008107115954698457
F0.0003271579130532116
F0.0027151250913827175
tp1211
abag0
(g11
g2
Ntp1212
Rp1213
(lp1214
(F0.2752393029588324
F-0.2574112527221565
F1.1244266063263242
tp1215
a(F0.0008663352980653264
F0.0003865075251035488
F0.0028054579430030024
tp1216
abag0
(g11
g2
Ntp1217
Rp1218
(lp1219
(F0.27612706015656047
F-0.25700433373419157
F1.1272659413866304
tp1220
a(F0.0009191929218340776
F0.00043696010764292736
F0.0028889674526236526
tp1221
abag0
(g11
g2
Ntp1222
Rp1223
(lp1224
(F0.277066224842931
F-0.2565517798921367
F1.130186667719375
tp1225
a(F0.0009684526654993123
F0.00047548199065475114
F0.0029672192145813116
tp1226
abag0
(g11
g2
Ntp1227
Rp1228
(lp1229
(F0.27805286559670006
F-0.2560664349181546
F1.1331840527711996
tp1230
a(F0.001013289677325514
F0.0004998156718538834
F0.00304151368810426
tp1231
abag0
(g11
g2
Ntp1232
Rp1233
(lp1234
(F0.2790822472824205
F-0.25556302106156337
F1.1362545311067613
tp1235
a(F0.0010529315507951283
F0.0005086418552505542
F0.003112821152559609
tp1236
abag0
(g11
g2
Ntp1237
Rp1238
(lp1239
(F0.28014890035148027
F-0.2550571621620489
F1.1393953573617037
tp1240
a(F0.001086700028886909
F0.0005016751442371983
F0.0031817400199791743
tp1241
abag0
(g11
g2
Ntp1242
Rp1243
(lp1244
(F0.28124672932318007
F-0.25456434034766773
F1.1426042277404043
tp1245
a(F0.001114046454918557
F0.00047968714224969647
F0.003248480475834731
tp1246
abag0
(g11
g2
Ntp1247
Rp1248
(lp1249
(F0.2823691533868281
F-0.2540988594442102
F1.1458788955234307
tp1250
a(F0.0011345789774020979
F0.0004444557746788924
F0.0033128737822034197
tp1251
abag0
(g11
g2
Ntp1252
Rp1253
(lp1254
(F0.2835092703080546
F-0.2536728872996114
F1.149216805723638
tp1255
a(F0.001148080097672531
F0.00039864474175421613
F0.003374405943778268
tp1256
abag0
(g11
g2
Ntp1257
Rp1258
(lp1259
(F0.28466003367514336
F-0.2532956433844153
F1.1526147721144298
tp1260
a(F0.0011545138021886265
F0.0003456217949413787
F0.0034322729133298806
tp1261
abag0
(g11
g2
Ntp1262
Rp1263
(lp1264
(F0.2858144330383796
F-0.2529727876608464
F1.1560687164983652
tp1265
a(F0.0011540222028083892
F0.0002892286753078802
F0.003485453197291656
tp1266
abag0
(g11
g2
Ntp1267
Rp1268
(lp1269
(F0.2869656666876041
F-0.25270605256771356
F1.1595734855305222
tp1270
a(F0.0011469122737668255
F0.00023351878432493675
F0.003532792697172386
tp1271
abag0
(g11
g2
Ntp1272
Rp1273
(lp1274
(F0.2881072976473649
F-0.25249314304576925
F1.163122754975107
tp1275
a(F0.001133633881459532
F0.00018248076371671628
F0.0035730959511878118
tp1276
abag0
(g11
g2
Ntp1277
Rp1278
(lp1279
(F0.2892333848721705
F-0.25232791100807334
F1.1667090253249868
tp1280
a(F0.0011147508152143922
F0.0001397670079822176
F0.0036052176612764064
tp1281
abag0
(g11
g2
Ntp1282
Rp1283
(lp1284
(F0.2903385834888732
F-0.25220079182028504
F1.1703237066490095
tp1285
a(F0.0010909069138674958
F0.0001084456747870944
F0.003628148515460953
tp1286
abag0
(g11
g2
Ntp1287
Rp1288
(lp1289
(F0.2914182101251158
F-0.2520994724848437
F1.173957284749189
tp1290
a(F0.0010627896228654781
F9.079303741644303e-05
F0.0036410898293490674
tp1291
abag0
(g11
g2
Ntp1292
Rp1293
(lp1294
(F0.29246827173074247
F-0.25200974553153893
F1.1775995555817207
tp1295
a(F0.0010310933985283204
F8.814016810993513e-05
F0.003643512392895154
tp1296
abag0
(g11
g2
Ntp1297
Rp1298
(lp1299
(F0.2934854586848153
F-0.25191649015702505
F1.1812399107454383
tp1300
a(F0.000996485299249941
F0.00010078415536615717
F0.003635196056350323
tp1301
abag0
(g11
g2
Ntp1302
Rp1303
(lp1304
(F0.29446710522942954
F-0.25180471375066565
F1.1848676539214809
tp1305
a(F0.0009595748772925106
F0.00012796960738834857
F0.00361624794162392
tp1306
abag0
(g11
g2
Ntp1307
Rp1308
(lp1309
(F0.29541112224126775
F-0.2516605831345516
F1.1884723266254098
tp1310
a(F0.0009208901283519104
F0.0001679413855384022
F0.003587098628796607
tp1311
abag0
(g11
g2
Ntp1312
Rp1313
(lp1314
(F0.2963159089232442
F-0.2514723758560336
F1.1920440215790027
tp1315
a(F0.0008808607960846889
F0.0002180646750942148
F0.0035484771431050868
tp1316
abag0
(g11
g2
Ntp1317
Rp1318
(lp1319
(F0.297180251081438
F-0.2512312875973909
F1.195573663395722
tp1320
a(F0.0008398097981386458
F0.0002750039637384344
F0.003501366957040145
tp1321
abag0
(g11
g2
Ntp1322
Rp1323
(lp1324
(F0.2980032141908909
F-0.250932041786487
F1.1990532389784756
tp1325
a(F0.0007979529754817567
F0.00033494856568709206
F0.0034469464343366953
tp1326
abag0
(g11
g2
Ntp1327
Rp1328
(lp1329
(F0.29878403942894544
F-0.25057326109461187
F1.2024759638421587
tp1330
a(F0.0007554068057845219
F0.0003938692621406205
F0.0033865181000307396
tp1331
abag0
(g11
g2
Ntp1332
Rp1333
(lp1334
(F0.2995220502850872
F-0.25015757674698835
F1.205836375217944
tp1335
a(F0.0007122032008410852
F0.0004477886268528992
F0.003321431764217581
tp1336
abag0
(g11
g2
Ntp1337
Rp1338
(lp1339
(F0.3002165762953408
F-0.24969146933120992
F1.2091303479424074
tp1340
a(F0.0006683100604842345
F0.0004930467952963487
F0.003253006819517461
tp1341
abag0
(g11
g2
Ntp1342
Rp1343
(lp1344
(F0.300866898981429
F-0.24918485285950395
F1.2123550344259544
tp1345
a(F0.0006236559084801636
F0.0005265448617698629
F0.003182458960583568
tp1346
abag0
(g11
g2
Ntp1347
Rp1348
(lp1349
(F0.3014722233088056
F-0.24865043100175307
F1.2155087350723712
tp1350
a(F0.0005781567095171994
F0.0005459497116443381
F0.003110836150004622
tp1351
abag0
(g11
g2
Ntp1352
Rp1353
(lp1354
(F0.30203167603861836
F-0.24810286950891308
F1.2185907100465372
tp1355
a(F0.0005317428722590283
F0.000549846796201699
F0.003038967913901777
tp1356
abag0
(g11
g2
Ntp1357
Rp1358
(lp1359
(F0.3025443303699729
F-0.24755784089057462
F1.2216009469659508
tp1360
a(F0.0004843844841968118
F0.0005378309441213315
F0.002967431048406583
tp1361
abag0
(g11
g2
Ntp1362
Rp1363
(lp1364
(F0.3030092543829484
F-0.2470310056101485
F1.2245399016920369
tp1365
a(F0.000436112993487603
F0.0005105295275929921
F0.002896533627707726
tp1366
abag0
(g11
g2
Ntp1367
Rp1368
(lp1369
(F0.3034255791225111
F-0.24653699789617375
F1.2274082307648384
tp1370
a(F0.00038703783662559434
F0.00046955687268529733
F0.002826317909643208
tp1371
abag0
(g11
g2
Ntp1372
Rp1373
(lp1374
(F0.303792580814272
F-0.24608848351619173
F1.2302065340916903
tp1375
a(F0.0003373568870674672
F0.000417403412676923
F0.002756581425698653
tp1376
abag0
(g11
g2
Ntp1377
Rp1378
(lp1379
(F0.3041097707566035
F-0.24569535160830183
F1.2329351252885539
tp1380
a(F0.0002873600417190786
F0.0003572674196576456
F0.0026869143080307106
tp1381
abag0
(g11
g2
Ntp1382
Rp1383
(lp1384
(F0.3043769859430824
F-0.2453640933040573
F1.2355938446901014
tp1385
a(F0.00023742573878363744
F0.00029284092515769464
F0.0026167498294830845
tp1386
abag0
(g11
g2
Ntp1387
Rp1388
(lp1389
(F0.3045944734563516
F-0.245097407066273
F1.2381819266775818
tp1390
a(F0.0001880106796690386
F0.00022806440663135775
F0.0025454242841502542
tp1391
abag0
(g11
g2
Ntp1392
Rp1393
(lp1394
(F0.30476296212915444
F-0.24489405529342276
F1.2406979288719933
tp1395
a(F0.00013963347790074413
F0.00016686678178897093
F0.002472241769844822
tp1396
abag0
(g11
g2
Ntp1397
Rp1398
(lp1399
(F0.30488371584987
F-0.2447489798590725
F1.2431397262000963
tp1400
a(F9.285335043231213e-05
F0.00011290809454626261
F0.0023965391837269096
tp1401
abag0
(g11
g2
Ntp1402
Rp1403
(lp1404
(F0.3049585641307402
F-0.2446536670022485
F1.2455045681831953
tp1405
a(F4.824527705500435e-05
F6.93419488052658e-05
F0.002317746820159267
tp1406
abag0
(g11
g2
Ntp1407
Rp1408
(lp1409
(F0.3049899070675672
F-0.2445967355188824
F1.2477891933469698
tp1410
a(F6.373263447274645e-06
F3.8613282331276784e-05
F0.0022354403547993804
tp1411
abag0
(g11
g2
Ntp1412
Rp1413
(lp1414
(F0.304980693494943
F-0.24456470761800678
F1.2499899907090843
tp1415
a(F-3.223655851169801e-05
F2.2304581443223303e-05
F0.0021493806787715305
tp1416
abag0
(g11
g2
Ntp1417
Rp1418
(lp1419
(F0.30493437286779884
F-0.24454291005550588
F1.2521031951340582
tp1420
a(F-6.712127689267259e-05
F2.104029467802807e-05
F0.0020595389602305696
tp1421
abag0
(g11
g2
Ntp1422
Rp1423
(lp1424
(F0.3048548230643908
F-0.24451644500033295
F1.2541251011586776
tp1425
a(F-9.790340487616401e-05
F3.4455241862683176e-05
F0.0019661053912646592
tp1426
abag0
(g11
g2
Ntp1427
Rp1428
(lp1429
(F0.30474625780081543
F-0.24447116603290647
F1.2560522788222284
tp1430
a(F-0.0001243085865832038
F6.122850510520894e-05
F0.0018694812489409474
tp1431
abag0
(g11
g2
Ntp1432
Rp1433
(lp1434
(F0.30461311857950346
F-0.24439459495329496
F1.257881775141047
tp1435
a(F-0.0001461777572180157
F9.917992163399797e-05
F0.0017702550783537194
tp1436
abag0
(g11
g2
Ntp1437
Rp1438
(lp1439
(F0.30445995699007156
F-0.2442767196263292
F1.2596112861216624
tp1440
a(F-0.00016347308360142594
F0.00014542216751599273
F0.0016691649113596539
tp1441
abag0
(g11
g2
Ntp1442
Rp1443
(lp1444
(F0.30429131369035733
F-0.24411062156570362
F1.2612392865074555
tp1445
a(F-0.00017627741830070136
F0.00019655779961360543
F0.0015670493919994297
tp1446
abag0
(g11
g2
Ntp1447
Rp1448
(lp1449
(F0.3041116004947951
F-0.24389289375456666
F1.262765107625892
tp1450
a(F-0.0001847874150212342
F0.000248907747316084
F0.0014647914243418611
tp1451
abag0
(g11
g2
Ntp1452
Rp1453
(lp1454
(F0.3039249916901249
F-0.24362382349571388
F1.2641889575147518
tp1455
a(F-0.00018930084761244426
F0.000298755799831054
F0.0013632584420263593
tp1456
abag0
(g11
g2
Ntp1457
Rp1458
(lp1459
(F0.30373533001467456
F-0.24330733090163903
F1.2655118816830366
tp1460
a(F-0.00019019902487108414
F0.0003425927392009344
F0.0012632435910766564
tp1461
abag0
(g11
g2
Ntp1462
Rp1463
(lp1464
(F0.30354605173065086
F-0.2429506699035587
F1.2667356671101933
tp1465
a(F-0.0001879254768303585
F0.000377343972244089
F0.0011654120089639047
tp1466
abag0
(g11
g2
Ntp1467
Rp1468
(lp1469
(F0.303360133962035
F-0.2425639142906751
F1.2678626961095965
tp1470
a(F-0.00018296228885799164
F0.0004005657908328754
F0.0010702559845628934
tp1471
abag0
(g11
g2
Ntp1472
Rp1473
(lp1474
(F0.30318006605098813
F-0.2421592652523178
F1.268895760201566
tp1475
a(F-0.0001758055669810895
F0.00041059764233231685
F0.0009780621265078147
tp1476
abag0
(g11
g2
Ntp1477
Rp1478
(lp1479
(F0.3030078451984021
F-0.241750228275088
F1.2698378469183322
tp1480
a(F-0.00016694152715362773
F0.00040666085943153184
F0.000888892799877493
tp1481
abag0
(g11
g2
Ntp1482
Rp1483
(lp1484
(F0.30284499519626507
F-0.2413507153161145
F1.27069191431298
tp1485
a(F-0.000156824614939323
F0.0003888979670767212
F0.0008025830753966954
tp1486
abag0
(g11
g2
Ntp1487
Rp1488
(lp1489
(F0.3026926057229974
F-0.2409741324326411
F1.2714606687473387
tp1490
a(F-0.00014585888873326107
F0.00035835070201158933
F0.0007187533431833369
tp1491
abag0
(g11
g2
Ntp1492
Rp1493
(lp1494
(F0.3025513885393495
F-0.24063251325808788
F1.2721463612444088
tp1495
a(F-0.00013438365307142413
F0.0003168789752590624
F0.0006368366507111294
tp1496
abag0
(g11
g2
Ntp1497
Rp1498
(lp1499
(F0.302421746057688
F-0.24033575490929696
F1.2727506163394937
tp1500
a(F-0.0001226640270342393
F0.00026702690537004766
F0.000556118807488366
tp1501
abag0
(g11
g2
Ntp1502
Rp1503
(lp1504
(F0.30230384720790676
F-0.24009100539051256
F1.2732743050539788
tp1505
a(F-0.00011088679753758809
F0.000211845492375034
F0.0004757884263986529
tp1506
abag0
(g11
g2
Ntp1507
Rp1508
(lp1509
(F0.30219770531321016
F-0.23990224087293355
F1.2737174705150534
tp1510
a(F-9.91615612692476e-05
F0.00015468426447937824
F0.0003949934024666777
tp1511
abag0
(g11
g2
Ntp1512
Rp1513
(lp1514
(F0.3021032528202346
F-0.23977005812579988
F1.2740793110748267
tp1515
a(F-8.752682500987086e-05
F9.89661351128191e-05
F0.0003128999081825373
tp1516
abag0
(g11
g2
Ntp1517
Rp1518
(lp1519
(F0.30202040817975967
F-0.2396916927598641
F1.2743582218016163
tp1520
a(F-7.596043339737361e-05
F4.796063982399038e-05
F0.00022874983717136667
tp1521
abag0
(g11
g2
Ntp1522
Rp1523
(lp1524
(F0.3019491309058211
F-0.2396612588109595
F1.2745518912020943
tp1525
a(F-6.439344429136858e-05
F4.570630099519887e-06
F0.00014191276255766958
tp1526
abag0
(g11
g2
Ntp1527
Rp1528
(lp1529
(F0.30188946179476733
F-0.23967019055705013
F1.2746574462625857
tp1530
a(F-5.272638919340915e-05
F-2.885359693119442e-05
F5.19288810409917e-05
tp1531
abag0
(g11
g2
Ntp1532
Rp1533
(lp1534
(F0.30184154639162375
F-0.23970785429777064
F1.2746716356290506
tp1535
a(F-4.084674925410568e-05
F-5.066077203540731e-05
F-4.1459941762349315e-05
tp1536
abag0
(g11
g2
Ntp1537
Rp1538
(lp1539
(F0.3018056409715449
F-0.23976228699191574
F1.2745910381992842
tp1540
a(F-2.864645049177158e-05
F-5.999656148516029e-05
F-0.00013829307115810014
tp1541
abag0
(g11
g2
Ntp1542
Rp1543
(lp1544
(F0.30178210147961415
F-0.23982101083987617
F1.2744122827471454
tp1545
a(F-1.6038233755313674e-05
F-5.6847108364067034e-05
F-0.00023838902263245817
tp1546
abag0
(g11
g2
Ntp1547
Rp1548
(lp1549
(F0.30177135696655166
F-0.23987186859769016
F1.2741322635439714
tp1550
a(F-2.969879291488086e-06
F-4.202612025794627e-05
F-0.0003413584362649871
tp1551
abag0
(g11
g2
Ntp1552
Rp1553
(lp1554
(F0.30177387000303585
F-0.2399038238591463
F1.2737483373240055
tp1555
a(F1.0564548467726653e-05
F-1.7107220131659043e-05
F-0.00044663110907276223
tp1556
abag0
(g11
g2
Ntp1557
Rp1558
(lp1559
(F0.30179008729583734
F-0.23990767372974212
F1.27325848832452
tp1560
a(F2.4517037799206144e-05
F1.5693083915062565e-05
F-0.0005534951314664829
tp1561
abag0
(g11
g2
Ntp1562
Rp1563
(lp1564
(F0.30182038422507046
F-0.23987662797818016
F1.2726614504146936
tp1565
a(F3.8781888258386475e-05
F5.367322280504175e-05
F-0.0006611453587187681
tp1566
abag0
(g11
g2
Ntp1567
Rp1568
(lp1569
(F0.3018650072516947
F-0.23980671839443773
F1.2719567783468502
tp1570
a(F5.319595823976947e-05
F9.383398511636444e-05
F-0.0007687378290769038
tp1571
abag0
(g11
g2
Ntp1572
Rp1573
(lp1574
(F0.3019240181047368
F-0.2396970140211565
F1.2711448637067841
tp1575
a(F6.754270409292449e-05
F0.00013308250558927005
F-0.0008754463576872084
tp1576
abag0
(g11
g2
Ntp1577
Rp1578
(lp1579
(F0.30199724336353656
F-0.2395496313244221
F1.27022689496007
tp1580
a(F8.155957401713447e-05
F0.00016843887369535616
F-0.0009805174140515493
tp1581
abag0
(g11
g2
Ntp1582
Rp1583
(lp1584
(F0.3020842325331752
F-0.23936954231031704
F1.2692047648249034
tp1585
a(F9.494812114036879e-05
F0.0001972314382259761
F-0.0010833195364382741
tp1586
abag0
(g11
g2
Ntp1587
Rp1588
(lp1589
(F0.30218422701641173
F-0.23916419712936546
F1.268080931786952
tp1590
a(F0.00010738605369539496
F0.00021726784704684244
F-0.001183383937302462
tp1591
abag0
(g11
g2
Ntp1592
Rp1593
(lp1594
(F0.30229614156841095
F-0.23894298993557808
F1.2668582456648978
tp1595
a(F0.00011854035382885059
F0.00022697068527807954
F-0.0012804335797633106
tp1596
abag0
(g11
g2
Ntp1597
Rp1598
(lp1599
(F0.3024185589427789
F-0.23871660687325036
F1.2655397495295482
tp1600
a(F0.00012808057370059016
F0.00022546912661123474
F-0.0013743988117877492
tp1601
abag0
(g11
g2
Ntp1602
Rp1603
(lp1604
(F0.3025497375619884
F-0.2384963023987307
F1.264128471816858
tp1605
a(F0.00013569145703910287
F0.00021264111023544316
F-0.0014654185751968763
tp1606
abag0
(g11
g2
Ntp1607
Rp1608
(lp1609
(F0.3026876312323865
F-0.23829315424690714
F1.262627223058285
tp1610
a(F0.00014108413083419456
F0.00018910398415281454
F-0.0015538271961968782
tp1611
abag0
(g11
g2
Ntp1612
Rp1613
(lp1614
(F0.3028299192269546
F-0.23811734798777726
F1.2610384112489947
tp1615
a(F0.0001440052562342375
F0.00015615507894742065
F-0.001640127744582289
tp1616
abag0
(g11
g2
Ntp1617
Rp1618
(lp1619
(F0.3029740445208047
F-0.23797753928888574
F1.2593638885218223
tp1620
a(F0.00014424370783576852
F0.00011566705504437925
F-0.0017249538530040567
tp1621
abag0
(g11
g2
Ntp1622
Rp1623
(lp1624
(F0.3031172576150428
F-0.23788033594061667
F1.2576048395935435
tp1625
a(F0.00014163455221247696
F6.994587432055717e-05
F-0.0018090226544520884
tp1626
abag0
(g11
g2
Ntp1627
Rp1628
(lp1629
(F0.30325666323951667
F-0.2378299328649911
F1.2557617195581465
tp1630
a(F0.00013606030452952342
F2.1561684385408485e-05
F-0.0018930820740145002
tp1631
abag0
(g11
g2
Ntp1632
Rp1633
(lp1634
(F0.30338926728431315
F-0.2378279223491849
F1.2538342452236606
tp1635
a(F0.00012744964131951574
F-2.6835387525736327e-05
F-0.0019778560620563827
tp1636
abag0
(g11
g2
Ntp1637
Rp1638
(lp1639
(F0.3035120215592868
F-0.23787328939474586
F1.251821440560442
tp1640
a(F0.00011577392399761946
F-7.27016617634401e-05
F-0.0020639914580928105
tp1641
abag0
(g11
g2
Ntp1642
Rp1643
(lp1644
(F0.3036218643928392
F-0.23796258920888622
F1.2497217332005905
tp1645
a(F0.00010104202959805465
F-0.00011377569896269934
F-0.002152010022964783
tp1646
abag0
(g11
g2
Ntp1647
Rp1648
(lp1649
(F0.30371575561741304
F-0.23809029136696666
F1.2475330955490758
tp1650
a(F8.329408352210826e-05
F-0.00014823149151366112
F-0.0022422687840862633
tp1651
abag0
(g11
g2
Ntp1652
Rp1653
(lp1654
(F0.3037907051038443
F-0.23824926389242204
F1.2452532211666183
tp1655
a(F6.2594738215431e-05
F-0.00017479878133255905
F-0.002334931233620103
tp1656
abag0
(g11
g2
Ntp1657
Rp1658
(lp1659
(F0.3038437946498992
F-0.2384313611873092
F1.2428797248569137
tp1660
a(F3.902663976911412e-05
F-0.00019284260732984089
F-0.002429951145933219
tp1661
abag0
(g11
g2
Ntp1662
Rp1663
(lp1664
(F0.3038721936497061
F-0.2386280730169101
F1.2404103534828943
tp1665
a(F1.2684673333083e-05
F-0.0002023970748428737
F-0.0025270698933361623
tp1666
abag0
(g11
g2
Ntp1667
Rp1668
(lp1669
(F0.3038731695233651
F-0.23883118803693493
F1.2378431940370944
tp1670
a(F-1.632851668934722e-05
F-0.00020415153947766915
F-0.0026258272001396642
tp1671
abag0
(g11
g2
Ntp1672
Rp1673
(lp1674
(F0.30384409432934684
F-0.23903342487393867
F1.2351768659250442
tp1675
a(F-4.790536603986556e-05
F-0.00019939068848185058
F-0.0027255843498018534
tp1676
abag0
(g11
g2
Ntp1677
Rp1678
(lp1679
(F0.30378244928529335
F-0.23922898652825486
F1.2324106857484132
tp1680
a(F-8.193437900587091e-05
F-0.00018989315914736695
F-0.0028255580123569993
tp1681
abag0
(g11
g2
Ntp1682
Rp1683
(lp1684
(F0.3036858290657591
F-0.23941399964345814
F1.2295447949951548
tp1685
a(F-0.00011829922271875772
F-0.00017779614226060215
F-0.002924862147604866
tp1686
abag0
(g11
g2
Ntp1687
Rp1688
(lp1689
(F0.3035519477210116
F-0.23958680855325423
F1.2265802438016946
tp1690
a(F-0.00015687605134626548
F-0.00016543569131237976
F-0.0030225549121579184
tp1691
abag0
(g11
g2
Ntp1692
Rp1693
(lp1694
(F0.3033786478746853
F-0.2397481043793327
F1.223519027148622
tp1695
a(F-0.0001975293384001697
F-0.00015517404515642987
F-0.00311768719083331
tp1696
abag0
(g11
g2
Ntp1697
Rp1698
(lp1699
(F0.3031639145272751
F-0.2399008810851131
F1.2203640732584629
tp1700
a(F-0.00024010662547182217
F-0.00014922607104197563
F-0.003209349305089508
tp1701
abag0
(g11
g2
Ntp1702
Rp1703
(lp1704
(F0.30290589434503123
F-0.24005022248342064
F1.2171191873407692
tp1705
a(F-0.0002844326924259464
F-0.000149496898781482
F-0.0032967126265981087
tp1706
abag0
(g11
g2
Ntp1707
Rp1708
(lp1709
(F0.30260292078582646
F-0.24020293591930364
F1.2137889569381974
tp1710
a(F-0.00033030371082653197
F-0.0001574419547002184
F-0.0033790632291099162
tp1711
abag0
(g11
g2
Ntp1712
Rp1713
(lp1714
(F0.30225354484640854
F-0.2403670589028962
F1.210378627749636
tp1715
a(F-0.000377481955594473
F-0.00017395898139411128
F-0.003455825317163417
tp1716
abag0
(g11
g2
Ntp1717
Rp1718
(lp1719
(F0.30185657065277594
F-0.24055127363797107
F1.206893960759904
tp1720
a(F-0.0004256916193110904
F-0.00019931936273996414
F-0.003526572932758029
tp1721
abag0
(g11
g2
Ntp1722
Rp1723
(lp1724
(F0.30141109459984883
F-0.24076427060000838
F1.2033410826546158
tp1725
a(F-0.0004746162020954938
F-0.0002331433223980378
F-0.0035910293069755343
tp1726
abag0
(g11
g2
Ntp1727
Rp1728
(lp1729
(F0.3009165463167069
F-0.2410141056557545
F1.1997263417648638
tp1730
a(F-0.0005238978434376866
F-0.0002744205192354251
F-0.003649054131760294
tp1731
abag0
(g11
g2
Ntp1732
Rp1733
(lp1734
(F0.3003727294211265
F-0.24130759547540426
F1.196056181152764
tp1735
a(F-0.0005731388290552041
F-0.00032157443419392217
F-0.003700619913929748
tp1736
abag0
(g11
g2
Ntp1737
Rp1738
(lp1739
(F0.2997798598546795
F-0.24164979317095775
F1.192337038962139
tp1740
a(F-0.0006219053558552882
F-0.00037256594382412746
F-0.0037457793768267246
tp1741
abag0
(g11
g2
Ntp1742
Rp1743
(lp1744
(F0.29913859956940914
F-0.24204358041178414
F1.1885752839249493
tp1745
a(F-0.0006697334825638558
F-0.0004250288093944339
F-0.003784626538539403
tp1746
abag0
(g11
g2
Ntp1747
Rp1748
(lp1749
(F0.2984500834700412
F-0.2424894041264644
F1.184777191092191
tp1750
a(F-0.0007161370438780241
F-0.0004764276565495111
F-0.003817254572709086
tp1751
abag0
(g11
g2
Ntp1752
Rp1753
(lp1754
(F0.2977159377916464
F-0.2429851758689595
F1.1809489596479177
tp1755
a(F-0.0007606171728495732
F-0.0005242275223654387
F-0.0038437138149277506
tp1756
abag0
(g11
g2
Ntp1757
Rp1758
(lp1759
(F0.2969382884913237
F-0.2435263407025102
F1.1770967712943854
tp1760
a(F-0.0008026729689697475
F-0.0005660633023396913
F-0.0038639732961095355
tp1761
abag0
(g11
g2
Ntp1762
Rp1763
(lp1764
(F0.29611975872493745
F-0.24410611080899047
F1.1732268844045224
tp1765
a(F-0.0008418127754202581
F-0.000599897485636388
F-0.0038778889619849603
tp1766
abag0
(g11
g2
Ntp1767
Rp1768
(lp1769
(F0.2952634550310551
F-0.2447158477615128
F1.1693457561597078
tp1770
a(F-0.0008775654929625012
F-0.0006241554145247638
F-0.0038851812896034546
tp1771
abag0
(g11
g2
Ntp1772
Rp1773
(lp1774
(F0.29437294241520207
F-0.2453455672708038
F1.165460182440052
tp1775
a(F-0.0009094913618922573
F-0.0006378288815233082
F-0.0038854243676432897
tp1776
abag0
(g11
g2
Ntp1777
Rp1778
(lp1779
(F0.2934522090788241
F-0.24598453191638964
F1.161577443489155
tp1780
a(F-0.0009371916863824281
F-0.0006405410743079896
F-0.0038780477111820463
tp1781
abag0
(g11
g2
Ntp1782
Rp1783
(lp1784
(F0.2925056220315409
F-0.2466218914594222
F1.1577054424657853
tp1785
a(F-0.000960317053537394
F-0.0006325685416640204
F-0.003862351187721064
tp1786
abag0
(g11
g2
Ntp1787
Rp1788
(lp1789
(F0.29153787522983654
F-0.24724732719776366
F1.1538528239940473
tp1790
a(F-0.0009785737062499038
F-0.0006148188005796878
F-0.0038375325009154153
tp1791
abag0
(g11
g2
Ntp1792
Rp1793
(lp1794
(F0.2905539321748664
F-0.24785165666799439
F1.1500290607420411
tp1795
a(F-0.0009917278561394627
F-0.0005887652336794887
F-0.0038027257755900903
tp1796
abag0
(g11
g2
Ntp1797
Rp1798
(lp1799
(F0.2895589650600747
F-0.24842735782241387
F1.1462444978440811
tp1800
a(F-0.0009996078607476852
F-0.0005563438317039796
F-0.0037570489745480185
tp1801
abag0
(g11
g2
Ntp1802
Rp1803
(lp1804
(F0.28855829257927457
F-0.248968977408861
F1.142510347520655
tp1805
a(F-0.001002104327423868
F-0.0005198189211645977
F-0.003699657210850926
tp1806
abag0
(g11
g2
Ntp1807
Rp1808
(lp1809
(F0.28755731839151855
F-0.2494733962669008
F1.1388386293782822
tp1810
a(F-0.0009991683347417356
F-0.00048162710870630783
F-0.003629798545416404
tp1811
abag0
(g11
g2
Ntp1812
Rp1813
(lp1814
(F0.28656147200409166
F-0.24993993407508805
F1.135242055381636
tp1815
a(F-0.0009908080715239696
F-0.0004442101313590597
F-0.003546868612749552
tp1816
abag0
(g11
g2
Ntp1817
Rp1818
(lp1819
(F0.2855761535016003
F-0.25037028706791387
F1.1317338621483746
tp1820
a(F-0.0009770842758638854
F-0.0004098480294465354
F-0.0034504604160042625
tp1821
abag0
(g11
g2
Ntp1822
Rp1823
(lp1824
(F0.28460668314660587
F-0.2507683036387314
F1.1283275967768236
tp1825
a(F-0.0009581049063055199
F-0.0003805040098585354
F-0.0033404058784017735
tp1826
abag0
(g11
g2
Ntp1827
Rp1828
(lp1829
(F0.2836582564393424
F-0.25113961378218136
F1.1250368656364507
tp1830
a(F-0.0009340194914905767
F-0.0003576915477113071
F-0.003216806216654734
tp1831
abag0
(g11
g2
Ntp1832
Rp1833
(lp1834
(F0.2827359047865386
F-0.2514911382591583
F1.1218750582104406
tp1835
a(F-0.000905013582766278
F-0.000342372742120476
F-0.003080048883003277
tp1836
abag0
(g11
g2
Ntp1837
Rp1838
(lp1839
(F0.2818444615272089
F-0.25183051151929026
F1.1188550599941618
tp1840
a(F-0.0008713036788924852
F-0.0003348948027335949
F-0.0029308096615345562
tp1841
abag0
(g11
g2
Ntp1842
Rp1843
(lp1844
(F0.28098853272802615
F-0.25216545824255465
F1.1159889694870426
tp1845
a(F-0.0008331329080738008
F-0.00033496894416431975
F-0.002770039446548173
tp1846
abag0
(g11
g2
Ntp1847
Rp1848
(lp1849
(F0.2801724719181964
F-0.25250316647404303
F1.1132878343904855
tp1850
a(F-0.0007907676472400147
F-0.000341693082387714
F-0.0025989362135806883
tp1851
abag0
(g11
g2
Ntp1852
Rp1853
(lp1854
(F0.2794003578014557
F-0.25284970051934424
F1.1107614212265438
tp1855
a(F-0.0007444951406144925
F-0.00035361675583408695
F-0.002418903652013196
tp1856
abag0
(g11
g2
Ntp1857
Rp1858
(lp1859
(F0.2786759739695344
F-0.2532094940353738
F1.1084180307715965
tp1860
a(F-0.0006946220589314967
F-0.00036884383498517924
F-0.002231498797986713
tp1861
abag0
(g11
g2
Ntp1862
Rp1863
(lp1864
(F0.27800278974591514
F-0.25358495828288496
F1.1062643690682366
tp1865
a(F-0.0006414738272186087
F-0.00038516603015535645
F-0.0020383717292825837
tp1866
abag0
(g11
g2
Ntp1867
Rp1868
(lp1869
(F0.2773839414998847
F-0.25397623267642566
F1.1043054805036847
tp1870
a(F-0.0005853944523639055
F-0.0004002181291641605
F-0.0018412009110590356
tp1871
abag0
(g11
g2
Ntp1872
Rp1873
(lp1874
(F0.27682221406863705
F-0.25438109510742324
F1.1025447457344906
tp1875
a(F-0.000526746510017847
F-0.0004116444335949463
F-0.0016416280768559856
tp1876
abag0
(g11
g2
Ntp1877
Rp1878
(lp1879
(F0.2763200222819167
F-0.25479503868063397
F1.1009839433352269
tp1880
a(F-0.00046591091014409425
F-0.00041726511139663643
F-0.0014411965723301
tp1881
abag0
(g11
g2
Ntp1882
Rp1883
(lp1884
(F0.27587939296632996
F-0.25521151022531985
F1.0996233702074287
tp1885
a(F-0.00040328605576487177
F-0.00041523119374999983
F-0.0012412968756885382
tp1886
abag0
(g11
g2
Ntp1887
Rp1888
(lp1889
(F0.27550194817899
F-0.2556222949804796
F1.0984620122555309
tp1890
a(F-0.00033928604147083464
F-0.000404157713203837
F-0.0010431225516888741
tp1891
abag0
(g11
g2
Ntp1892
Rp1893
(lp1894
(F0.27518889074642067
F-0.2560180219457819
F1.097497753850855
tp1895
a(F-0.00027433760556241595
F-0.000383225955003183
F-0.0008476392245016735
tp1896
abag0
(g11
g2
Ntp1897
Rp1898
(lp1899
(F0.2749409934310849
F-0.2563887562018823
F1.0967276123597127
tp1900
a(F-0.00020887564795982628
F-0.00035224787399774877
F-0.0006555683121456673
tp1901
abag0
(g11
g2
Ntp1902
Rp1903
(lp1904
(F0.27475859318630513
F-0.25672463858431205
F1.0961479826562601
tp1905
a(F-0.00014333724845312624
F-0.0003116882749020118
F-0.0004673863065370314
tp1906
abag0
(g11
g2
Ntp1907
Rp1908
(lp1909
(F0.27464159197011573
F-0.25701652983976536
F1.0957548761655664
tp1910
a(F-7.815425759825575e-05
F-0.00026264319251676676
F-0.00028333937125251204
tp1911
abag0
(g11
g2
Ntp1912
Rp1913
(lp1914
(F0.27458946545860474
F-0.2572566160187799
F1.0955441396138272
tp1915
a(F-1.3744675290868604e-05
F-0.00020677585006963933
F-0.00010347203044061981
tp1916
abag0
(g11
g2
Ntp1917
Rp1918
(lp1919
(F0.27460128072902
F-0.2574389343875174
F1.0955116402608542
tp1920
a(F4.94968312630491e-05
F-0.00014621442085472765
F7.233219717304106e-05
tp1921
abag0
(g11
g2
Ntp1922
Rp1923
(lp1924
(F0.2746757235828086
F-0.2575597844020807
F1.0956534068511365
tp1925
a(F0.00011120879877736699
F-8.341838031543785e-05
F0.0002443011446550802
tp1926
abag0
(g11
g2
Ntp1927
Rp1928
(lp1929
(F0.2748111356699166
F-0.2576179959273231
F1.0959657186828122
tp1930
a(F0.00017107266433768578
F-2.1022341489501156e-05
F0.0004127188365630144
tp1931
abag0
(g11
g2
Ntp1932
Rp1933
(lp1934
(F0.27500556098863493
F-0.25761503638547917
F1.0964451388510217
tp1935
a(F0.00022882166611684174
F3.833222403127243e-05
F0.0005778686911179617
tp1936
abag0
(g11
g2
Ntp1937
Rp1938
(lp1939
(F0.27525680070815306
F-0.25755494925107086
F1.0970884916321757
tp1940
a(F0.0002842483122428321
F9.216616506385793e-05
F0.0007399790546427698
tp1941
abag0
(g11
g2
Ntp1942
Rp1943
(lp1944
(F0.27556247463700706
F-0.2574441275488839
F1.0978927878801052
tp1945
a(F0.00033720981184026167
F0.0001383214531805845
F0.0008991748756764311
tp1946
abag0
(g11
g2
Ntp1947
Rp1948
(lp1949
(F0.2759200870852134
F-0.257290937009488
F1.098855105944792
tp1950
a(F0.000387630938052654
F0.00017509902381780123
F0.0010554389105884385
tp1951
abag0
(g11
g2
Ntp1952
Rp1953
(lp1954
(F0.27632709438557895
F-0.25710521355677024
F1.0999724387568803
tp1955
a(F0.0004355039114552124
F0.00020136647050918375
F0.0012085852102548707
tp1956
abag0
(g11
g2
Ntp1957
Rp1958
(lp1959
(F0.2767809709908884
F-0.2568976681750953
F1.1012415201365784
tp1960
a(F0.0004808850477446433
F0.0002166284187510103
F0.001358246809971335
tp1961
abag0
(g11
g2
Ntp1962
Rp1963
(lp1964
(F0.2772792708817379
F-0.2566792383712138
F1.102658644920482
tp1965
a(F0.0005238880972179316
F0.00022105489665356318
F0.0015038785861510547
tp1966
abag0
(g11
g2
Ntp1967
Rp1968
(lp1969
(F0.27781968102842935
F-0.2564604289966181
F1.1042194980483997
tp1970
a(F0.0005646744043280417
F0.0002154658222904734
F0.0016447752162103038
tp1971
abag0
(g11
g2
Ntp1972
Rp1973
(lp1974
(F0.278400063861605
F-0.2562506858931285
F1.1059190072731717
tp1975
a(F0.0006034402209422366
F0.00020127265550959897
F0.0017801031498494305
tp1976
abag0
(g11
g2
Ntp1977
Rp1978
(lp1979
(F0.279018486119368
F-0.25605784362186046
F1.107751232676104
tp1980
a(F0.0006404017034481559
F0.00018038111972670017
F0.0019089445385106296
tp1981
abag0
(g11
g2
Ntp1982
Rp1983
(lp1984
(F0.2796732320392841
F-0.2558876835804021
F1.1097093037815082
tp1985
a(F0.0006757782982542254
F0.00015506149649990793
F0.0020303502388515616
tp1986
abag0
(g11
g2
Ntp1987
Rp1988
(lp1989
(F0.2803627996248074
F-0.2557436314354131
F1.1117854119188388
tp1990
a(F0.0007097753601790365
F0.0001277951595261544
F0.002143398361054592
tp1991
abag0
(g11
g2
Ntp1992
Rp1993
(lp1994
(F0.2810858795985967
F-0.2556266134896127
F1.1139708617835669
tp1995
a(F0.0007425669431869593
F0.00010110760104951134
F0.0022472544171989743
tp1996
abag0
(g11
g2
Ntp1997
Rp1998
(lp1999
(F0.2818413176116741
F-0.2555350809834793
F1.1162561821392694
tp2000
a(F0.0007742797449135179
F7.739910688498912e-05
F0.0023412289674437704
tp2001
abag0
(g11
g2
Ntp2002
Rp2003
(lp2004
(F0.2826280612524789
F-0.25546520011046553
F1.11863129154637
tp2005
a(F0.0008049791705707944
F5.878439609246437e-05
F0.002424828774345119
tp2006
abag0
(g11
g2
Ntp2007
Rp2008
(lp2009
(F0.2834450943352057
F-0.25541119444796123
F1.1210857111653836
tp2010
a(F0.0008346584067900842
F4.6951946892837534e-05
F0.002497797852620586
tp2011
abag0
(g11
g2
Ntp2012
Rp2013
(lp2014
(F0.28429136178414516
F-0.25536581631313043
F1.1236088133194988
tp2015
a(F0.0008632312641038462
F4.305242086415862e-05
F0.002560145420150568
tp2016
abag0
(g11
g2
Ntp2017
Rp2018
(lp2019
(F0.2851656891156838
F-0.2553209149232481
F1.1261900918387777
tp2020
a(F0.0008905293640878404
F4.762365939387541e-05
F0.002612158577189128
tp2021
abag0
(g11
g2
Ntp2022
Rp2023
(lp2024
(F0.28606670100508846
F-0.2552680627509832
F1.1288194384277248
tp2025
a(F0.0009163040230186885
F6.055728810255889e-05
F0.0026543985124621084
tp2026
abag0
(g11
g2
Ntp2027
Rp2028
(lp2029
(F0.2869927436746562
F-0.2551991975511702
F1.1314874085249231
tp2030
a(F0.0009402329304274884
F8.11091880192983e-05
F0.0026876800948125545
tp2031
abag0
(g11
g2
Ntp2032
Rp2033
(lp2034
(F0.2879418158297071
F-0.25510723646130107
F1.1341854604184711
tp2035
a(F0.0009619314524567901
F0.00010795316075028436
F0.0027130357889976636
tp2036
abag0
(g11
g2
Ntp2037
Rp2038
(lp2039
(F0.2889115125905499
F-0.25498662041927644
F1.136906152735817
tp2040
a(F0.0009809681220557694
F0.00013927422320532496
F0.0027316658641647886
tp2041
abag0
(g11
g2
Ntp2042
Rp2043
(lp2044
(F0.28989898632899763
F-0.25483375178143036
F1.1396432877640827
tp2045
a(F0.0009968836267263128
F0.00017289530766133717
F0.002744877776305404
tp2046
abag0
(g11
g2
Ntp2047
Rp2048
(lp2049
(F0.29090092754000096
F-0.2546472951580708
F1.1423919912357412
tp2050
a(F0.0010092123850850082
F0.0002064288919722508
F0.0027540183416753235
tp2051
abag0
(g11
g2
Ntp2052
Rp2053
(lp2054
(F0.29191356789993195
F-0.25442832064325516
F1.145148723037742
tp2055
a(F0.0010175056296811303
F0.00023744339272927596
F0.0027604028279439685
tp2056
abag0
(g11
g2
Ntp2057
Rp2058
(lp2059
(F0.2929327065331815
F-0.2541802791953891
F1.1479112175299542
tp2060
a(F0.001021354796615788
F0.0002636331345912442
F0.0027652453391523086
tp2061
abag0
(g11
g2
Ntp2062
Rp2063
(lp2064
(F0.2939537592882602
F-0.2539088112250492
F1.150678356523401
tp2065
a(F0.001020413970682426
F0.0002829804311020125
F0.0027695948414469705
tp2066
abag0
(g11
g2
Ntp2067
Rp2068
(lp2069
(F0.29497182958037155
F-0.25362140071618966
F1.1534499821916617
tp2070
a(F0.0010144201524263945
F0.00029389879654563626
F0.0027742808688402936
tp2071
abag0
(g11
g2
Ntp2072
Rp2073
(lp2074
(F0.29598179815913783
F-0.25332689769643796
F1.1562266609985683
tp2075
a(F0.001003210201106887
F0.00029534752499935134
F0.00277987237962422
tp2076
abag0
(g11
g2
Ntp2077
Rp2078
(lp2079
(F0.2969784280762125
F-0.25303494088065115
F1.159009412874902
tp2080
a(F0.0009867334613392646
F0.0002869097436311281
F0.0027866524390566545
tp2081
abag0
(g11
g2
Ntp2082
Rp2083
(lp2084
(F0.2979564802210446
F-0.25275531923402633
F1.1617994221597436
tp2085
a(F0.0009650592935669976
F0.0002688284510608212
F0.0027946104317316182
tp2086
abag0
(g11
g2
Ntp2087
Rp2088
(lp2089
(F0.29891083411813796
F-0.25249731556728006
F1.164597748085738
tp2090
a(F0.0009383789883036867
F0.0002419978314558177
F0.0028034524184135713
tp2091
abag0
(g11
g2
Ntp2092
Rp2093
(lp2094
(F0.2998366082775162
F-0.25226907678417726
F1.1674050527430901
tp2095
a(F0.0009070018372419553
F0.0002079101089451102
F0.0028126291155851743
tp2096
abag0
(g11
g2
Ntp2097
Rp2098
(lp2099
(F0.3007292742886063
F-0.252077053935882
F1.1702213634857734
tp2100
a(F0.0008713454446975479
F0.00016856117953790843
F0.002821379863458591
tp2101
abag0
(g11
g2
Ntp2102
Rp2103
(lp2104
(F0.3015847590566055
F-0.25192555087771684
F1.1730458846978298
tp2105
a(F0.000831920673132233
F0.0001263210330440006
F0.0028287899305049166
tp2106
abag0
(g11
g2
Ntp2107
Rp2108
(lp2109
(F0.3023995300924507
F-0.25181641334353144
F1.1758768708388914
tp2110
a(F0.0007893119092122207
F8.377737172741042e-05
F0.0028338576447692484
tp2111
abag0
(g11
g2
Ntp2112
Rp2113
(lp2114
(F0.30317065955848843
F-0.2517488810965727
F1.1787115689184304
tp2115
a(F0.0007441535954097327
F4.3562686020673984e-05
F0.0028355671996413145
tp2116
abag0
(g11
g2
Ntp2117
Rp2118
(lp2119
(F0.30389586380172195
F-0.25171961507464724
F1.181546234239857
tp2120
a(F0.0006971041817817368
F8.176235720661094e-06
F0.002832962596257684
tp2121
abag0
(g11
g2
Ntp2122
Rp2123
(lp2124
(F0.304573516321287
F-0.25172289982012497
F1.1843762186760298
tp2125
a(F0.0006488188012020768
F-2.0187174246847045e-05
F0.0028252180821661463
tp2126
abag0
(g11
g2
Ntp2127
Rp2128
(lp2129
(F0.30520263345209625
F-0.2517510097329683
F1.1871961261732364
tp2130
a(F0.000599922050330971
F-3.9790074683815966e-05
F0.0028117006343702567
tp2131
abag0
(g11
g2
Ntp2132
Rp2133
(lp2134
(F0.30578283343084045
F-0.2517947165815183
F1.1900000259181587
tp2135
a(F0.0005509822632440056
F-4.947642477037035e-05
F0.00279202050414651
tp2136
abag0
(g11
g2
Ntp2137
Rp2138
(lp2139
(F0.30631427086915014
F-0.2518439059878767
F1.1927817099112492
tp2140
a(F0.0005024885943672565
F-4.875827231095276e-05
F0.002766066563099354
tp2141
abag0
(g11
g2
Ntp2142
Rp2143
(lp2144
(F0.30679754991827146
F-0.25188826292354327
F1.1955349788053522
tp2145
a(F0.00045483208585270625
F-3.785872193264753e-05
F0.002734024120767652
tp2146
abag0
(g11
g2
Ntp2147
Rp2148
(lp2149
(F0.30723362050195185
F-0.2519179811293263
F1.1982539379759054
tp2150
a(F0.00040829168945940344
F-1.770776879993105e-05
F0.0026963739663870257
tp2151
abag0
(g11
g2
Ntp2152
Rp2153
(lp2154
(F0.3076236628603542
F-0.2519244491713152
F1.2009332850130225
tp2155
a(F0.00036302595561609727
F1.010937493222637e-05
F0.002653872554068827
tp2156
abag0
(g11
g2
Ntp2157
Rp2158
(lp2159
(F0.30796896624109843
F-0.2519008667344779
F1.2035685702211836
tp2160
a(F0.0003190708067662323
F4.344870922816059e-05
F0.0026075144290432987
tp2161
abag0
(g11
g2
Ntp2162
Rp2163
(lp2164
(F0.3082708078623432
F-0.2518427487102724
F1.2061564132611495
tp2165
a(F0.0002763434945540877
F7.974290225006738e-05
F0.0025584791090810808
tp2166
abag0
(g11
g2
Ntp2167
Rp2168
(lp2169
(F0.3085303382422086
F-0.2517482814284746
F1.2086946616807874
tp2170
a(F0.00023465251826770267
F0.00011616740966926661
F0.0025080656196994366
tp2171
abag0
(g11
g2
Ntp2172
Rp2173
(lp2174
(F0.30874847864129007
F-0.2516185046043687
F1.2111824805997378
tp2175
a(F0.0001937129727319549
F0.0001498267735199496
F0.0024576186722140843
tp2176
abag0
(g11
g2
Ntp2177
Rp2178
(lp2179
(F0.308925835720177
F-0.25145730364812935
F1.2136203670229058
tp2180
a(F0.00015316651422830725
F0.00017794915361621336
F0.002408451019941082
tp2181
abag0
(g11
g2
Ntp2182
Rp2183
(lp2184
(F0.3090626376074163
F-0.2512712092164081
F1.2160100869012198
tp2185
a(F0.0001126048979187485
F0.0001980764382385476
F0.00236176679476354
tp2186
abag0
(g11
g2
Ntp2187
Rp2188
(lp2189
(F0.3091586944547309
F-0.2510690134985581
F1.2183545378483949
tp2190
a(F7.159586198790177e-05
F0.00020823738398263026
F0.00231859059600814
tp2191
abag0
(g11
g2
Ntp2192
Rp2193
(lp2194
(F0.309213385286032
F-0.25086122491159163
F1.220657545062613
tp2195
a(F2.9710021348183968e-05
F0.00020709214850410672
F0.0022797067767042043
tp2196
abag0
(g11
g2
Ntp2197
Rp2198
(lp2199
(F0.30922567159289616
F-0.2506593938385614
F1.2229236022031353
tp2200
a(F-1.3452607389408481e-05
F0.0001940382538291963
F0.002245612767827895
tp2201
abag0
(g11
g2
Ntp2202
Rp2203
(lp2204
(F0.3091941367634926
F-0.2504753510646078
F1.2251575724709334
tp2205
a(F-5.8237796534178105e-05
F0.000169270352605072
F0.002216489435353475
tp2206
abag0
(g11
g2
Ntp2207
Rp2208
(lp2209
(F0.30911704912598
F-0.250320407039989
F1.2273643677189208
tp2210
a(F-0.00010491525898679412
F0.0001337890230814773
F0.0021921904291939136
tp2211
abag0
(g11
g2
Ntp2212
Rp2213
(lp2214
(F0.3089924452084898
F-0.2502045635824087
F1.2295486249068373
tp2215
a(F-0.0001536608414952888
F8.935701472684427e-05
F0.0021722513206750825
tp2216
abag0
(g11
g2
Ntp2217
Rp2218
(lp2219
(F0.30881822882558746
F-0.25013578985958057
F1.2317143995204038
tp2220
a(F-0.00020454362133163126
F3.8404706138358554e-05
F0.0021559181073269084
tp2221
abag0
(g11
g2
Ntp2222
Rp2223
(lp2224
(F0.30859228084424967
F-0.25011941140829874
F1.2338648946688677
tp2225
a(F-0.0002575185082786947
F-1.6110189355466084e-05
F0.002142193465389729
tp2226
abag0
(g11
g2
Ntp2227
Rp2228
(lp2229
(F0.30831257399631284
F-0.25015765469804235
F1.2360022425088222
tp2230
a(F-0.00031242466713837894
F-7.088063442699295e-05
F0.0021298980254302255
tp2231
abag0
(g11
g2
Ntp2232
Rp2233
(lp2234
(F0.3079772869094351
F-0.25024938068594826
F1.2381273515362323
tp2235
a(F-0.00036898977822210694
F-0.00012245542306103802
F0.002117743003195606
tp2236
abag0
(g11
g2
Ntp2237
Rp2238
(lp2239
(F0.3075849116295122
F-0.25039002946694766
F1.2402398293283587
tp2240
a(F-0.0004268398603785841
F-0.00016745900172918465
F0.0021044097949029375
tp2241
abag0
(g11
g2
Ntp2242
Rp2243
(lp2244
(F0.30713434929318206
F-0.250571785177773
F1.242337985741353
tp2245
a(F-0.0004855141083258682
F-0.00020281232561785144
F0.002088631688786223
tp2246
abag0
(g11
g2
Ntp2247
Rp2248
(lp2249
(F0.30662498925384496
F-0.2507839565536576
F1.2444189166550415
tp2250
a(F-0.0005444839571911024
F-0.0002259408018956347
F0.0020692726819713076
tp2251
abag0
(g11
g2
Ntp2252
Rp2253
(lp2254
(F0.30605676782989705
F-0.25101355480844373
F1.2464786634029286
tp2255
a(F-0.0006031753938317754
F-0.00023495591847062563
F0.0020453985347289928
tp2256
abag0
(g11
g2
Ntp2257
Rp2258
(lp2259
(F0.3054302038805188
F-0.2512460376663157
F1.2485124383354604
tp2260
a(F-0.0006609933955501635
F-0.0002287985423374106
F0.0020163356353358826
tp2261
abag0
(g11
g2
Ntp2262
Rp2263
(lp2264
(F0.30474640956572263
F-0.25146617722481496
F1.2505149028259128
tp2265
a(F-0.0007173472978669538
F-0.00020733401994780493
F0.0019817139624214923
tp2266
abag0
(g11
g2
Ntp2267
Rp2268
(lp2269
(F0.3040070758525155
F-0.25165900058678103
F1.2524804806962626
tp2270
a(F-0.0007716758763427717
F-0.000171391999026855
F0.0019414913754366898
tp2271
abag0
(g11
g2
Ntp2272
Rp2273
(lp2274
(F0.3032144335261684
F-0.2518107464357683
F1.2544036877224112
tp2275
a(F-0.0008234709718682884
F-0.0001227471527500886
F0.0018959575813219556
tp2276
abag0
(g11
g2
Ntp2277
Rp2278
(lp2279
(F0.3023711915953663
F-0.2519097783413067
F1.256279456720735
tp2280
a(F-0.0008722985899956424
F-6.40405288428588e-05
F0.0018457173495331793
tp2281
abag0
(g11
g2
Ntp2282
Rp2283
(lp2284
(F0.30148045598864764
F-0.25194739676129196
F1.2581034377980649
tp2285
a(F-0.0009178165554958437
F1.3551448331532594e-06
F0.0017916538046855016
tp2286
abag0
(g11
g2
Ntp2287
Rp2288
(lp2289
(F0.30054563228145764
F-0.25191849643795255
F1.2598722546672307
tp2290
a(F-0.0009597879937773034
F6.951940857979242e-05
F0.0017348738404889144
tp2291
abag0
(g11
g2
Ntp2292
Rp2293
(lp2294
(F0.2995703168330857
F-0.2518220239252206
F1.2615837004180248
tp2295
a(F-0.0009980901297328454
F0.00013620738684073436
F0.0016766387971373124
tp2296
abag0
(g11
g2
Ntp2297
Rp2298
(lp2299
(F0.2985581811272506
F-0.2516612009006654
F1.2632368596460297
tp2300
a(F-0.0010327181296052826
F0.00019710004050553872
F0.0016182844605352263
tp2301
abag0
(g11
g2
Ntp2302
Rp2303
(lp2304
(F0.29751285428818175
F-0.2514434920891936
F1.2648321481745932
tp2305
a(F-0.0010637839498811473
F0.0002480670882835253
F0.0015611351202482295
tp2306
abag0
(g11
g2
Ntp2307
Rp2308
(lp2309
(F0.29643780868728414
F-0.2511803113022996
F1.2663712665038775
tp2310
a(F-0.001091510386761049
F0.00028542731926008895
F0.0015064168225948733
tp2311
abag0
(g11
g2
Ntp2312
Rp2313
(lp2314
(F0.2953362532772708
F-0.25088647442330536
F1.2678570682964376
tp2315
a(F-0.0011162207292159097
F0.00030619090055224326
F0.0014551750512715104
tp2316
abag0
(g11
g2
Ntp2317
Rp2318
(lp2319
(F0.29421103881494187
F-0.25057942324753074
F1.2692933503550294
tp2320
a(F-0.001138324598474907
F0.0003082690723827725
F0.0014082018538325526
tp2321
abag0
(g11
g2
Ntp2322
Rp2323
(lp2324
(F0.2930645784932136
F-0.25027825802611275
F1.2706845753600335
tp2325
a(F-0.001158300699557642
F0.0002906382781211646
F0.0013659769202085652
tp2326
abag0
(g11
g2
Ntp2327
Rp2328
(lp2329
(F0.2918987867366678
F-0.2500026285332775
F1.272035542824958
tp2330
a(F-0.0011766773111198383
F0.00025344820750168633
F0.0013286263389010687
tp2331
abag0
(g11
g2
Ntp2332
Rp2333
(lp2334
(F0.29071503806591287
F-0.2497715427593946
F1.2733510270488904
tp2335
a(F-0.001194011395944072
F0.00019806629972389972
F0.001295901753096185
tp2336
abag0
(g11
g2
Ntp2337
Rp2338
(lp2339
(F0.2895141470490015
F-0.24960215835919816
F1.274635403095394
tp2340
a(F-0.0012108672259372507
F0.00012705478383339208
F0.001267181471365357
tp2341
abag0
(g11
g2
Ntp2342
Rp2343
(lp2344
(F0.2882963694765733
F-0.2495086243760499
F1.2758922828715353
tp2345
a(F-0.0012277953849472779
F4.408012343191742e-05
F0.0012414938241458332
tp2346
abag0
(g11
g2
Ntp2347
Rp2348
(lp2349
(F0.28706142406153135
F-0.24950103934847453
F1.2771241831524704
tp2350
a(F-0.0012453129446346053
F-4.6241437414140106e-05
F0.0012175617716112957
tp2351
abag0
(g11
g2
Ntp2352
Rp2353
(lp2354
(F0.2858085332089228
F-0.24958458673372144
F1.278332245904386
tp2355
a(F-0.0012638855092831653
F-0.0001385548816114175
F0.001193866535782378
tp2356
abag0
(g11
g2
Ntp2357
Rp2358
(lp2359
(F0.2845364807555241
F-0.24975889992128314
F1.2795160285834595
tp2360
a(F-0.0012839117022863257
F-0.0002270233779759887
F0.0011687269214232072
tp2361
abag0
(g11
g2
Ntp2362
Rp2363
(lp2364
(F0.2832436840619366
F-0.250017697425386
F1.2806733783811737
tp2365
a(F-0.001305710528276136
F-0.0003056179137679723
F0.0011403900705627145
tp2366
abag0
(g11
g2
Ntp2367
Rp2368
(lp2369
(F0.28192827746501076
F-0.25034871478220766
F1.2818003998568215
tp2370
a(F-0.0013295118988278782
F-0.0003684243815637208
F0.0011071287172807493
tp2371
abag0
(g11
g2
Ntp2372
Rp2373
(lp2374
(F0.2805882038691794
F-0.25073394401482657
F1.2828915203035158
tp2375
a(F-0.0013554504643797972
F-0.00040995180618541224
F0.001067339611355673
tp2376
abag0
(g11
g2
Ntp2377
Rp2378
(lp2379
(F0.2792213111681224
F-0.25115017513836346
F1.2839396518235993
tp2380
a(F-0.001383562757683471
F-0.0004254252113198329
F0.0010196376836890079
tp2381
abag0
(g11
g2
Ntp2382
Rp2383
(lp2384
(F0.27782545023269
F-0.25156981797250616
F1.2849364437472712
tp2385
a(F-0.0014137875308062198
F-0.0004110473584159421
F0.0009629407376851038
tp2386
abag0
(g11
g2
Ntp2387
Rp2388
(lp2389
(F0.27639857136128193
F-0.2519619674104819
F1.2858726140161723
tp2390
a(F-0.0014459690630730295
F-0.00036421519977938117
F0.0008965399557868365
tp2391
abag0
(g11
g2
Ntp2392
Rp2393
(lp2394
(F0.274938816345018
F-0.2522936621015346
F1.2867383437531954
tp2395
a(F-0.0014798631343989012
F-0.00028367928080533976
F0.0008201522791134273
tp2396
abag0
(g11
g2
Ntp2397
Rp2398
(lp2399
(F0.2734446036297861
F-0.25253127596646985
F1.2875237156965087
tp2400
a(F-0.0015151452986241144
F-0.0001696373660284778
F0.0007339517056084186
tp2401
abag0
(g11
g2
Ntp2402
Rp2403
(lp2404
(F0.2719147044375783
F-0.252641974659676
F1.288219174685275
tp2405
a(F-0.0015514210545568322
F-2.3757077075564755e-05
F0.0006385777010617711
tp2406
abag0
(g11
g2
Ntp2407
Rp2408
(lp2409
(F0.270348308118128
F-0.2525951654095758
F1.2888159870816671
tp2410
a(F-0.0015882374968823477
F0.0001508738811515769
F0.0005351201618148884
tp2411
abag0
(g11
g2
Ntp2412
Rp2413
(lp2414
(F0.26874507541847675
F-0.25236386880150397
F1.2893066759653664
tp2415
a(F-0.0016250960322006824
F0.0003498674796045905
F0.00042508163701568944
tp2416
abag0
(g11
g2
Ntp2417
Rp2418
(lp2419
(F0.2671051787655095
F-0.25192594498769255
F1.289685410138485
tp2420
a(F-0.0016614657636536663
F0.0005677189857272693
F0.00031031874036838386
tp2421
abag0
(g11
g2
Ntp2422
Rp2423
(lp2424
(F0.2654293290412361
F-0.2512651142831155
F1.289948327356213
tp2425
a(F-0.0016967971768614347
F0.0007980449813072187
F0.000192965788249555
tp2426
abag0
(g11
g2
Ntp2427
Rp2428
(lp2429
(F0.26371878868329685
F-0.25037172270304536
F1.2900937756117468
tp2430
a(F-0.0017305357960384312
F0.0010338635114495248
F7.534463198484955e-05
tp2431
abag0
(g11
g2
Ntp2432
Rp2433
(lp2434
(F0.2619753712585242
F-0.24924321611915823
F1.290122460556918
tp2435
a(F-0.0017621355182411806
F0.0012679019849824796
F-4.013464312460596e-05
tp2436
abaa(F1.0
F2.0
F3.0
F4.0
F5.0
F6.0
F7.0
F8.0
F9.0
F10.0
F11.0
F12.0
F13.0
F14.0
F15.0
F16.0
F17.0
F18.0
F19.0
F20.0
F21.0
F22.0
F23.0
F24.0
F25.0
F26.0
F27.0
F28.0
F29.0
F30.0
F31.0
F32.0
F33.0
F34.0
F35.0
F36.0
F37.0
F38.0
F39.0
F40.0
F41.0
F42.0
F43.0
F44.0
F45.0
F46.0
F47.0
F48.0
F49.0
F50.0
F51.0
F52.0
F53.0
F54.0
F55.0
F56.0
F57.0
F58.0
F59.0
F60.0
F61.0
F62.0
F63.0
F64.0
F65.0
F66.0
F67.0
F68.0
F69.0
F70.0
F71.0
F72.0
F73.0
F74.0
F75.0
F76.0
F77.0
F78.0
F79.0
F80.0
F81.0
F82.0
F83.0
F84.0
F85.0
F86.0
F87.0
F88.0
F89.0
F90.0
F91.0
F92.0
F93.0
F94.0
F95.0
F96.0
F97.0
F98.0
F99.0
F100.0
F101.0
F102.0
F103.0
F104.0
F105.0
F106.0
F107.0
F108.0
F109.0
F110.0
F111.0
F112.0
F113.0
F114.0
F115.0
F116.0
F117.0
F118.0
F119.0
F120.0
F121.0
F122.0
F123.0
F124.0
F125.0
F126.0
F127.0
F128.0
F129.0
F130.0
F131.0
F132.0
F133.0
F134.0
F135.0
F136.0
F137.0
F138.0
F139.0
F140.0
F141.0
F142.0
F143.0
F144.0
F145.0
F146.0
F147.0
F148.0
F149.0
F150.0
F151.0
F152.0
F153.0
F154.0
F155.0
F156.0
F157.0
F158.0
F159.0
F160.0
F161.0
F162.0
F163.0
F164.0
F165.0
F166.0
F167.0
F168.0
F169.0
F170.0
F171.0
F172.0
F173.0
F174.0
F175.0
F176.0
F177.0
F178.0
F179.0
F180.0
F181.0
F182.0
F183.0
F184.0
F185.0
F186.0
F187.0
F188.0
F189.0
F190.0
F191.0
F192.0
F193.0
F194.0
F195.0
F196.0
F197.0
F198.0
F199.0
F200.0
F201.0
F202.0
F203.0
F204.0
F205.0
F206.0
F207.0
F208.0
F209.0
F210.0
F211.0
F212.0
F213.0
F214.0
F215.0
F216.0
F217.0
F218.0
F219.0
F220.0
F221.0
F222.0
F223.0
F224.0
F225.0
F226.0
F227.0
F228.0
F229.0
F230.0
F231.0
F232.0
F233.0
F234.0
F235.0
F236.0
F237.0
F238.0
F239.0
F240.0
F241.0
F242.0
F243.0
F244.0
F245.0
F246.0
F247.0
F248.0
F249.0
F250.0
F251.0
F252.0
F253.0
F254.0
F255.0
F256.0
F257.0
F258.0
F259.0
F260.0
F261.0
F262.0
F263.0
F264.0
F265.0
F266.0
F267.0
F268.0
F269.0
F270.0
F271.0
F272.0
F273.0
F274.0
F275.0
F276.0
F277.0
F278.0
F279.0
F280.0
F281.0
F282.0
F283.0
F284.0
F285.0
F286.0
F287.0
F288.0
F289.0
F290.0
F291.0
F292.0
F293.0
F294.0
F295.0
F296.0
F297.0
F298.0
F299.0
F300.0
F301.0
F302.0
F303.0
F304.0
F305.0
F306.0
F307.0
F308.0
F309.0
F310.0
F311.0
F312.0
F313.0
F314.0
F315.0
F316.0
F317.0
F318.0
F319.0
F320.0
F321.0
F322.0
F323.0
F324.0
F325.0
F326.0
F327.0
F328.0
F329.0
F330.0
F331.0
F332.0
F333.0
F334.0
F335.0
F336.0
F337.0
F338.0
F339.0
F340.0
F341.0
F342.0
F343.0
F344.0
F345.0
F346.0
F347.0
F348.0
F349.0
F350.0
F351.0
F352.0
F353.0
F354.0
F355.0
F356.0
F357.0
F358.0
F359.0
F360.0
F361.0
F362.0
F363.0
F364.0
F365.0
F366.0
F367.0
F368.0
F369.0
F370.0
F371.0
F372.0
F373.0
F374.0
F375.0
F376.0
F377.0
F378.0
F379.0
F380.0
F381.0
F382.0
F383.0
F384.0
F385.0
F386.0
F387.0
F388.0
F389.0
F390.0
F391.0
F392.0
F393.0
F394.0
F395.0
F396.0
F397.0
F398.0
F399.0
F400.0
F401.0
F402.0
F403.0
F404.0
F405.0
F406.0
F407.0
F408.0
F409.0
F410.0
F411.0
F412.0
F413.0
F414.0
F415.0
F416.0
F417.0
F418.0
F419.0
F420.0
F421.0
F422.0
F423.0
F424.0
F425.0
F426.0
F427.0
F428.0
F429.0
F430.0
F431.0
F432.0
F433.0
F434.0
F435.0
F436.0
F437.0
F438.0
F439.0
F440.0
F441.0
F442.0
F443.0
F444.0
F445.0
F446.0
F447.0
F448.0
F449.0
F450.0
F451.0
F452.0
F453.0
F454.0
F455.0
F456.0
F457.0
F458.0
F459.0
F460.0
F461.0
F462.0
F463.0
F464.0
F465.0
F466.0
F467.0
F468.0
F469.0
F470.0
F471.0
F472.0
F473.0
F474.0
F475.0
F476.0
F477.0
F478.0
F479.0
F480.0
F481.0
F482.0
F483.0
F484.0
F485.0
tp2437
abaI1
ab.