ccopy_reg
_reconstructor
p0
(cdmp.srv._GetDMPPlan
GetDMPPlanResponse
p1
c__builtin__
object
p2
Ntp3
Rp4
(lp5
g0
(cdmp.msg._DMPTraj
DMPTraj
p6
g2
Ntp7
Rp8
(lp9
(lp10
g0
(cdmp.msg._DMPPoint
DMPPoint
p11
g2
Ntp12
Rp13
(lp14
(F0.13720515089056484
F-0.2638139396049887
F1.2110084708340434
F0.03929116627730994
F0.01998236512747853
F0.16492736767774668
tp15
a(F0.0005077734397357933
F0.00046044297588345985
F2.102489683465564e-05
F-0.0007140183729076864
F-0.0006704803587767622
F-0.002124655129823583
tp16
abag0
(g11
g2
Ntp17
Rp18
(lp19
(F0.13790582822389924
F-0.2631827415425687
F1.2110388719904976
F0.03831191908760693
F0.019060660406494685
F0.1620203591103897
tp20
a(F0.0009851571476128123
F0.0008829357008050037
F4.42869731050018e-05
F-0.0013702637450465805
F-0.0012920836585542162
F-0.004060394257280358
tp21
abag0
(g11
g2
Ntp22
Rp23
(lp24
(F0.13906797072210075
F-0.2621551337551398
F1.2110956672847741
F0.03671560821613275
F0.017548050604043113
F0.1573138308465755
tp25
a(F0.001423069898190786
F0.0012408130355662582
F7.529597990152638e-05
F-0.0019294408185091183
F-0.0018376179193350846
F-0.005658721477889383
tp26
abag0
(g11
g2
Ntp27
Rp28
(lp29
(F0.1406490121015186
F-0.26080456248145084
F1.2111883804877492
F0.034612246510643645
F0.015529742478333124
F0.15119433071130522
tp30
a(F0.0018138579095944552
F0.0015122319619434942
F0.00011844768412675275
F-0.0023595317307374677
F-0.002284482434330095
F-0.006798096303455562
tp31
abag0
(g11
g2
Ntp32
Rp33
(lp34
(F0.1425994550358657
F-0.2592238061760269
F1.211330340559877
F0.03214006966580938
F0.013111179784964946
F0.14415589774787113
tp35
a(F0.002151657201929007
F0.0016815664176344754
F0.00017667566098156416
F-0.002637915230859323
F-0.00261592958235224
F-0.007391765277209562
tp36
abag0
(g11
g2
Ntp37
Rp38
(lp39
(F0.1448647657852127
F-0.25751837535954114
F1.2115371258341063
F0.029455570753821984
F0.010411836687814893
F0.13676312619102146
tp40
a(F0.0024326527212829353
F0.0017403545686469585
F0.0002512198392369076
F-0.0027527728943626366
F-0.0028219386874460944
F-0.0073930744008620835
tp41
abag0
(g11
g2
Ntp42
Rp43
(lp44
(F0.14738748121626932
F-0.25579916850385354
F1.2118248298405672
F0.02672245241706652
F0.007558313402168792
F0.12961006144875453
tp45
a(F0.002655221773198232
F0.0016877428095902988
F0.00034152648036231344
F-0.002703693621207769
F-0.0028996539665716125
F-0.006797948596262978
tp46
abag0
(g11
g2
Ntp47
Rp48
(lp49
(F0.15010941032624164
F-0.25417489557769424
F1.2122082822725848
F0.02410031049687921
F0.004677177698113808
F0.12327780795058636
tp50
a(F0.002819956347017521
F0.0015304059002595805
F0.00044528468215645654
F-0.0025014467089939166
F-0.002853367541177639
F-0.005644422617031429
tp51
abag0
(g11
g2
Ntp52
Rp53
(lp54
(F0.15297380987963508
F-0.25274478698472624
F1.2126993597330904
F0.021733868278919873
F0.001888002956259388
F0.11829376255895852
tp55
a(F0.0029295661287513874
F0.0012819584979971066
F0.0005585947189181987
F-0.0021669539368018164
F-0.0026940580889579587
F-0.004009310138466233
tp56
abag0
(g11
g2
Ntp57
Rp58
(lp59
(F0.15592741837297922
F-0.25159207656807947
F1.2133055124609926
F0.019743527074934843
F-0.0007029685553921655
F0.11509522266315939
tp60
a(F0.0029886709486191547
F0.0009619074887904365
F0.0006762542471509247
F-0.0017295480700509523
F-0.0024385240378747824
F-0.0020022903908415144
tp61
abag0
(g11
g2
Ntp62
Rp63
(lp64
(F0.15892224381888329
F-0.25077868576319856
F1.2140286159716958
F0.01821789130674457
F-0.0030081576153966456
F0.1139997699639113
tp65
a(F0.0030034976696305025
F0.0005942246765773861
F0.0007921402555108168
F-0.0012246550313638781
F-0.0021081754367244907
F0.0002421382198450041
tp66
abag0
(g11
g2
Ntp67
Rp68
(lp69
(F0.16191701795073493
F-0.25034144663592833
F1.2148642318087508
F0.017208773127026664
F-0.004962668071380814
F0.1151843263608424
tp70
a(F0.002981501726724235
F0.0002056435931393035
F0.0008996581678297243
F-0.000691076273505751
F-0.0017275691943864342
F0.0025742516495263967
tp71
abag0
(g11
g2
Ntp72
Rp73
(lp74
(F0.16487825121645597
F-0.25029009101607563
F1.215801331245718
F0.016728994501435925
F-0.006526778442516889
F0.11867415442899786
tp75
a(F0.002930937377228772
F-0.00017619908639942354
F0.000992225140541518
F-0.00016807402894978486
F-0.0013227870200182312
F0.0048395609372899745
tp76
abag0
(g11
g2
Ntp77
Rp78
(lp79
(F0.16778084791963055
F-0.2506071091097074
F1.2168225020100591
F0.016753097406457484
F-0.0076867911209037455
F0.12434237626630879
tp80
a(F0.0028604030188342346
F-0.000524648786699728
F0.001063752600200016
F0.00030752654963242814
F-0.0009197632876629244
F0.006889413896318626
tp81
abag0
(g11
g2
Ntp82
Rp83
(lp84
(F0.1706082674818183
F-0.25124945248003133
F1.2179046233371587
F0.01722086040296117
F-0.008454232732295631
F0.13191985980216378
tp85
a(F0.0027783885687035384
F-0.0008158168187921777
F0.0011090935440918916
F0.0007040083869878725
F-0.0005426708183941535
F0.008591015444975885
tp86
abag0
(g11
g2
Ntp87
Rp88
(lp89
(F0.17335224438437075
F-0.25215193191445967
F1.2190199613466635
F0.01804331750822668
F-0.008863504690925044
F0.14101462062022088
tp90
a(F0.002692850880538405
F-0.0010301438782200213
F0.001124423005859845
F0.000997015575143288
F-0.00021246632237780007
F0.009836197057624448
tp91
abag0
(g11
g2
Ntp92
Rp93
(lp94
(F0.17601210429044944
F-0.25323204878788114
F1.220137607171646
F0.019110797271559357
F-0.008968179595130658
F0.15113925707883805
tp95
a(F0.002610840612321158
F-0.0011536415775287986
F0.0011075251325732979
F0.0011712297811671813
F5.4315469353856024e-05
F0.01054836305577443
tp96
abag0
(g11
g2
Ntp97
Rp98
(lp99
(F0.1785937356820435
F-0.2543959064320578
F1.2212251564751389
F0.020302358618921837
F-0.008836220789796775
F0.16174441844565818
tp100
a(F0.002538200047085083
F-0.0011787340525708592
F0.0010579671481801992
F0.0012213543692643058
F0.0002464481581351184
F0.010687175711265602
tp101
abag0
(g11
g2
Ntp102
Rp103
(lp104
(F0.18110829383942498
F-0.25554478159208216
F1.2222505125409784
F0.021495904986993414
F-0.008544464204885749
F0.1722559329542554
tp105
a(F0.002479346392525021
F-0.001104650231543348
F0.0009771485920932823
F0.0011523415280567414
F0.0003585320781207423
F0.010250702601543428
tp106
abag0
(g11
g2
Ntp107
Rp108
(lp109
(F0.18357072621263087
F-0.256581899308122
F1.2231836870778496
F0.02257821575657809
F-0.008172739911661604
F0.18211301773003585
tp110
a(F0.0024371493820900614
F-0.0009373487137794189
F0.0008682230413069717
F0.0009788526387899694
F0.0003911213217710848
F0.009274926886619553
tp111
abag0
(g11
g2
Ntp112
Rp113
(lp114
(F0.18599821461148805
F-0.2574189494335932
F1.2239984736825869
F0.02345414649044254
F-0.007798023775571886
F0.1908049662068583
tp115
a(F0.002412905946421208
F-0.0006889891956050878
F0.0007358984306527145
F0.0007239972065588029
F0.00035046191849696955
F0.007830701856173848
tp116
abag0
(g11
g2
Ntp117
Rp118
(lp119
(F0.18840862997845872
F-0.25798190924131187
F1.224673878408837
F0.024054315558882825
F-0.007488996886453958
F0.19790385943738018
tp120
a(F0.002406408707357479
F-0.0003769948244693153
F0.000586130462705204
F0.0004174470339024992
F0.00024786886205669403
F0.006018402906313783
tp121
abag0
(g11
g2
Ntp122
Rp123
(lp124
(F0.1908190899956878
F-0.2582157918089945
F1.225195209320375
F0.024340709227849273
F-0.00730135355363587
F0.20309116207857045
tp125
a(F0.0024160994418185324
F-2.277672689568093e-05
F0.00042573087614169503
F9.306637975580385e-05
F9.879243864757632e-05
F0.0039606815613612715
tp126
abag0
(g11
g2
Ntp127
Rp128
(lp129
(F0.19324469896240523
F-0.258088019826651
F1.2255547509784053
F0.02430979167660055
F-0.007274140556239261
F0.20617651745440732
tp130
a(F0.002439293807660276
F0.0003497865121609968
F0.0002619180326711481
F-0.0002137673988896185
F-7.835678084900094e-05
F0.0017938473623992613
tp131
abag0
(g11
g2
Ntp132
Rp133
(lp134
(F0.19569753412452298
F-0.2575902232491663
F1.2257519787833644
F0.023992889479346195
F-0.007427335346960634
F0.20710761561369936
tp135
a(F0.0024724597989511403
F0.0007160068001032029
F0.00010184101759159949
F-0.0004689570452792638
F-0.00026354100335150614
F-0.0003415132587335175
tp136
abag0
(g11
g2
Ntp137
Rp138
(lp139
(F0.19818592405930485
F-0.25673836978039416
F1.2257932999142664
F0.023453818700455074
F-0.007760784336202357
F0.2059706338010747
tp140
a(F0.00251152981142639
F0.0010520670297408889
F-4.789000326105363e-05
F-0.0006423895254862795
F-0.0004364949207629266
F-0.0023100315613135865
tp141
abag0
(g11
g2
Ntp142
Rp143
(lp144
(F0.20071404410200455
F-0.2555712518066463
F1.2256913400637162
F0.0227839228171017
F-0.008254530181870003
F0.20298139659577896
tp145
a(F0.0025522249728589306
F0.0013366098796509962
F-0.00018163514461279342
F-0.0007103552487378252
F-0.0005780987078540338
F-0.003990519341606284
tp146
abag0
(g11
g2
Ntp147
Rp148
(lp149
(F0.20328183252226914
F-0.25414746425239093
F1.2254638260210444
F0.02209487711518158
F-0.008870465355794633
F0.19846802879075426
tp150
a(F0.002590370560268424
F0.0015521290698370996
F-0.0002950887589494498
F-0.0006575073645621834
F-0.0006716351780216473
F-0.005283802899800289
tp151
abag0
(g11
g2
Ntp152
Rp153
(lp154
(F0.20588521058606443
F-0.2525411074667087
F1.2251321413147465
F0.02150977691450219
F-0.009555164144324705
F0.19284643584177424
tp155
a(F0.002622182829059409
F0.0016860726210915118
F-0.0003855517309334471
F-0.0004782190839486274
F-0.0007038519252586916
F-0.006118918649699329
tp156
abag0
(g11
g2
Ntp157
Rp158
(lp159
(F0.20851657105308197
F-0.25083653112238946
F1.2247196537734493
F0.021153151766077127
F-0.010243672087908629
F0.18659040749348793
tp160
a(F0.00264451027756038
F0.0017315889095045342
F-0.0004520943150359322
F-0.00017723972241696762
F-0.0006657641884068963
F-0.006457281495044103
tp161
abag0
(g11
g2
Ntp162
Rp163
(lp164
(F0.2111654841692842
F-0.24912249400343214
F1.2242499285868054
F0.021140627070238234
F-0.010863975174460465
F0.18019847059801042
tp165
a(F0.0026550160511045113
F0.0016878718442425178
F-0.0004955993270645917
F0.00023040033691052667
F-0.0005531529271066322
F-0.006294581846928558
tp166
abag0
(g11
g2
Ntp167
Rp168
(lp169
(F0.21381955869295335
F-0.2474861469091411
F1.2237449473195865
F0.02156898304199733
F-0.011341834182856997
F0.17415979718034802
tp170
a(F0.002652292583420051
F0.0015600895157274978
F-0.0005186837114874502
F0.000720232783668555
F-0.00036673386898038304
F-0.005660325790460125
tp171
abag0
(g11
g2
Ntp172
Rp173
(lp174
(F0.21646538852936828
F-0.24600725001788715
F1.2232234519764729
F0.022507336802878895
F-0.011605654351527333
F0.16892149404189197
tp175
a(F0.0026359043729138982
F0.0013589092166537663
F-0.0005255047570718181
F0.0012598872575373442
F-0.00011199561079055572
F-0.004615094407263189
tp176
abag0
(g11
g2
Ntp177
Rp178
(lp179
(F0.21908951341960115
F-0.2447530121811368
F1.22269952381919
F0.0239900984534155
F-0.011591067470303883
F0.1648594622127196
tp180
a(F0.0026063596740892913
F0.001099658883432577
F-0.0005214649615041318
F0.0018112162039784472
F0.00020127326609731562
F-0.0032457516132953553
tp181
abag0
(g11
g2
Ntp182
Rp183
(lp184
(F0.22167932478701677
F-0.2437738899021869
F1.2221814899338053
F0.02601223161175257
F-0.011244931536496815
F0.16225473065592338
tp185
a(F0.0025650165312841654
F0.0008011889257402599
F-0.0005128362328930132
F0.002332863861795092
F0.0005597281073817776
F-0.0016589648229204195
tp186
abag0
(g11
g2
Ntp187
Rp188
(lp189
(F0.22422385493663322
F-0.24310061205098374
F1.2216712277530495
F0.028527191518930475
F-0.01052849988368018
F0.16127676075917116
tp190
a(F0.002513932699859451
F0.00048451754403049704
F-0.0005063293220032979
F0.002783103531304766
F0.0009474263225620124
F2.6489519276166212e-05
tp191
abag0
(g11
g2
Ntp192
Rp193
(lp194
(F0.226714398697596
F-0.24274260795339378
F1.221163910472651
F0.031447730330777045
F-0.009419573610271612
F0.16197471629530252
tp195
a(F0.002455672339145463
F0.0001713557697304721
F-0.0005086377701796271
F0.0031227484201097715
F0.0013469302921240852
F0.0016880897991492097
tp196
abag0
(g11
g2
Ntp197
Rp198
(lp199
(F0.22914493044151318
F-0.24268791768344436
F1.220648206459931
F0.03464956228847324
F-0.007913523716873644
F0.16427713349848355
tp200
a(F0.0023930847305719733
F-0.00011738518014596234
F-0.0005259870285671626
F0.003317935889245389
F0.001740477862833589
F0.0032080214580406893
tp201
abag0
(g11
g2
Ntp202
Rp203
(lp204
(F0.23151229517982413
F-0.2429045610825308
F1.220106915384402
F0.03797768458656231
F-0.006023147523790041
F0.16799984678130309
tp205
a(F0.0023290715513459084
F-0.00036300236960341175
F-0.000563718688778364
F0.003342593131101865
F0.002111140835851587
F0.004481141367327609
tp206
abag0
(g11
g2
Ntp207
Rp208
(lp209
(F0.23381616903047572
F-0.24334324324266265
F1.2195179949590969
F0.04125496636907447
F-0.0037774023566336068
F0.172861467086799
tp210
a(F0.0022663593717742155
F-0.0005502311992892381
F-0.0006259370403016134
F0.003180413575611147
F0.00244389478237225
F0.005421921991784699
tp211
abag0
(g11
g2
Ntp212
Rp213
(lp214
(F0.2360588006203651
F-0.24394118556623734
F1.2188559067917957
F0.04429246083001353
F-0.0012191329474121495
F0.17850520947991713
tp215
a(F0.0022072930717755195
F-0.0006682167112151965
F-0.0007152406474529302
F0.002826206136041276
F0.002726531467280033
F0.005969922185602212
tp216
abag0
(g11
g2
Ntp217
Rp218
(lp219
(F0.23824455988561669
F-0.24462679888571884
F1.2180931895714207
F0.04690077450411067
F0.0015980272516328063
F0.18452545725424196
tp220
a(F0.0021536638900104305
F-0.0007111648974139325
F-0.0008325556489645234
F0.0022865214934010216
F0.0029503574706254334
F0.0060934399970591635
tp221
abag0
(g11
g2
Ntp222
Rp223
(lp224
(F0.24037933330337435
F-0.24532486313354346
F1.2172021539522706
F0.04890175161459884
F0.004613350593221428
F0.19049715769764916
tp225
a(F0.0021065829912146664
F-0.0006786356732308374
F-0.000977080451329703
F0.00157950809268326
F0.003110638342953943
F0.005791132813778625
tp226
abag0
(g11
g2
Ntp227
Rp228
(lp229
(F0.24246981407722484
F-0.2459618498503726
F1.21615658689204
F0.05013970485217962
F0.007763041978473053
F0.19600598742636016
tp230
a(F0.002066407978071957
F-0.0005754642681740048
F-0.0011463439020569497
F0.0007340020896860027
F0.003206765680912497
F0.005091532345445352
tp231
abag0
(g11
g2
Ntp232
Rp233
(lp234
(F0.24452274167291876
F-0.24647102089034417
F1.2149333541918494
F0.050491448879101335
F0.010984319299209667
F0.200677211079461
tp235
a(F0.002032725932594637
F-0.00041132332210503205
F-0.0013363714105483332
F-0.00021209333477970122
F0.0032421436053102198
F0.004050526438167615
tp236
abag0
(g11
g2
Ntp237
Rp238
(lp239
(F0.24654414708739095
F-0.24679695876384927
F1.213513798403465
F0.04987446741216198
F0.014219273156057774
F0.20420128451483166
tp240
a(F0.002004392615306824
F-0.0001999622097465648
F-0.0015419463465761794
F-0.0012140365125699571
F0.0032238099668756596
F0.0027470166878403018
tp241
abag0
(g11
g2
Ntp242
Rp243
(lp244
(F0.24853865832449532
F-0.2468992291960854
F1.2118848444382317
F0.04825266385307947
F0.017418253762688636
F0.20635451123338128
tp245
a(F0.0019796236448298807
F4.181857074150516e-05
F-0.0017569478634113843
F-0.002222940492628771
F0.0031618249453982715
F0.0012770811011638488
tp246
abag0
(g11
g2
Ntp247
Rp248
(lp249
(F0.25050891499664896
F-0.24675494118677851
F1.210039746016351
F0.045639301070807506
F0.02054257156187994
F0.20701342870861006
tp250
a(F0.0019561300739654687
F0.00029538311428705045
F-0.0019747414671975067
F-0.003188756938082308
F0.0030684744261124264
F-0.0002529332268391843
tp251
abag0
(g11
g2
Ntp252
Rp253
(lp254
(F0.25245513225853805
F-0.24636004937973846
F1.2079784310532335
F0.0420969176761978
F0.023566349983040604
F0.20616205260133666
tp255
a(F0.0019312879853505532
F0.0005415794995618207
F-0.0021885954912043096
F-0.0040633575623384025
F0.002957346715287358
F-0.0017338973508119054
tp256
abag0
(g11
g2
Ntp257
Rp258
(lp259
(F0.2543748430882601
F-0.24572933221546717
F1.2057074314529965
F0.03773420386791113
F0.02647743015663735
F0.20389160930736336
tp260
a(F0.0019023297174221307
F0.0007620709094035732
F-0.0023920953214535334
F-0.004803513585230674
F0.0028423481355734914
F-0.003061446954144467
tp261
abag0
(g11
g2
Ntp262
Rp263
(lp264
(F0.25626283508812003
F-0.24489507095112512
F1.2032394106923407
F0.03270001671564119
F0.02927729392204562
F0.20039290583400018
tp265
a(F0.0018665432101908081
F0.0009405873762918396
F-0.002579527819563516
F-0.005373580482921263
F0.002736725457546188
F-0.004143072740886448
tp266
abag0
(g11
g2
Ntp267
Rp268
(lp269
(F0.25811128439229236
F-0.24390454290489294
F1.2005923291473026
F0.027174899638639803
F0.031980038538671256
F0.19594198508219005
tp270
a(F0.00182146577813548
F0.0010640140711523148
F-0.0027462108304033886
F-0.005747714724032268
F0.0026521609274586925
F-0.00490427970282161
tp271
abag0
(g11
g2
Ntp272
Rp273
(lp274
(F0.25991007587440146
F-0.2428165212694032
F1.1977883105759106
F0.02136063175815101
F0.034610499628145185
F0.19088016063696697
tp275
a(F0.0017650593585073003
F0.0011232446735861626
F-0.0028887467540605286
F-0.005911479866164563
F0.0025979991023425573
F-0.005293412095427635
tp276
abag0
(g11
g2
Ntp277
Rp278
(lp279
(F0.26164728653692654
F-0.24169703833063583
F1.1948522919927327
F0.015468459334712496
F0.03720167390537415
F0.18558988875914775
tp280
a(F0.001695855870621103
F0.0011137456221326132
F-0.003005184603238902
F-0.005862739236254019
F0.002580654347005072
F-0.005284838959709717
tp281
abag0
(g11
g2
Ntp282
Rp283
(lp284
(F0.26330979852965497
F-0.24061471479037494
F1.1918105521631668
F0.00970674556051723
F0.039791636708077276
F0.18046819317198728
tp285
a(F0.0016130636243518455
F0.0010357976899597098
F-0.003095081371748065
F-0.0056117787541615114
F0.0026032344696351826
F-0.00488031203480998
tp286
abag0
(g11
g2
Ntp287
Rp288
(lp289
(F0.26488400033093307
F-0.23963598232644548
F1.1886892203232031
F0.004268811321843468
F0.04242017857863985
F0.1758994947928166
tp290
a(F0.0015166285592079828
F0.0008944039020845321
F-0.003159460461552337
F-0.0051806531985989345
F0.0026654005435552885
F-0.004108435626993469
tp291
abag0
(g11
g2
Ntp292
Rp293
(lp294
(F0.26635652969057255
F-0.23882052824483896
F1.185512866168364
F-0.0006782739029049051
F0.04512539857529671
F0.1722297066434023
tp295
a(F0.0014072472731959482
F0.0006988757374037884
F-0.0032006718813346125
F-0.004601799081192438
F0.0027634665662867822
F-0.00302231756125228
tp296
abag0
(g11
g2
Ntp297
Rp298
(lp299
(F0.26771501022187616
F-0.23821727035714915
F1.1823032647995
F-0.005003253900515785
F0.04794048907839534
F0.16974333551645898
tp300
a(F0.001286332090985116
F0.0004621312780972724
F-0.0032221654695109006
F-0.003916004035861095
F0.002890726366630986
F-0.0016955929013265797
tp301
abag0
(g11
g2
Ntp302
Rp303
(lp304
(F0.26894873506453604
F-0.23786112885149976
F1.1790784167636794
F-0.00861800954673659
F0.050890928206507195
F0.1686450968982912
tp305
a(F0.001155931600265034
F0.00019975802512648555
F-0.00322819407587931
F-0.003169863232831259
F0.0030379801718150453
F-0.00021711947308131573
tp306
abag0
(g11
g2
Ntp307
Rp308
(lp309
(F0.2700492556245445
F-0.23777080308346446
F1.1758518845933679
F-0.011482197209095941
F0.053992263203077255
F0.16904721620160326
tp310
a(F0.0010186129440958938
F-7.109175766491037e-05
F-0.003223468089923443
F-0.002412885209440327
F0.003194220466736074
F0.0013152706662653156
tp311
abag0
(g11
g2
Ntp312
Rp313
(lp314
(F0.27101084063762904
F-0.2379476891967706
F1.1726324846671607
F-0.013604925303491215
F0.057248623841120054
F0.1709631819716443
tp315
a(F0.000877314513343944
F-0.0003328950390384897
F-0.0032127856498882033
F-0.0016944306914165278
F0.00334742702075127
F0.0028015222006521194
tp316
abag0
(g11
g2
Ntp317
Rp318
(lp319
(F0.27183078013852396
F-0.23837599441501453
F1.1694243483689128
F-0.015043379890271918
F0.06065205228032275
F0.1743082644157196
tp320
a(F0.0007351793936480221
F-0.000568958443454668
F-0.003200664130591686
F-0.0010606771972474273
F0.003485414807115706
F0.004146141947742514
tp321
abag0
(g11
g2
Ntp322
Rp323
(lp324
(F0.2725095196648552
F-0.2390240213082377
F1.166227341115246
F-0.01589850170331013
F0.06418267863637617
F0.17890664693921815
tp325
a(F0.0005953808898029953
F-0.0007645431302397236
F-0.003190998030881433
F-0.000551799007407511
F0.0035966763229616392
F0.005264556553047884
tp326
abag0
(g11
g2
Ntp327
Rp328
(lp329
(F0.27305062142199077
F-0.23984651598803133
F1.16303780357116
F-0.016308000419749287
F0.06780971374204713
F0.18450457127463377
tp330
a(F0.00046095163345039606
F-0.000907838657564974
F-0.0031867662229915265
F-0.00019953678674861623
F0.003671161588653717
F0.006088617616089758
tp331
abag0
(g11
g2
Ntp332
Rp333
(lp334
(F0.27346056040262334
F-0.24078790336566847
F1.159849557892279
F-0.016437155671074247
F0.0714931760952653
F0.19078849836646275
tp335
a(F0.00033462718794763195
F-0.0009907218846122784
F-0.003189807857179296
F-2.530490004421739e-05
F0.0037009446502000837
F0.006570894892940296
tp336
abag0
(g11
g2
Ntp337
Rp338
(lp339
(F0.2737483738421422
F-0.2417861749937823
F1.156655104521325
F-0.016467988049319576
F0.07518622238844419
F0.1974069636910936
tp340
a(F0.00021871375941255716
F-0.0010092526468951678
F-0.00320068130601753
F-3.8949081441281496e-05
F0.00368073426430449
F0.006687487048923882
tp341
abag0
(g11
g2
Ntp342
Rp343
(lp344
(F0.2739251912289057
F-0.24277715430196165
F1.1534469230248554
F-0.016587479010340377
F0.07883791333407326
F0.20399457785794173
tp345
a(F0.00011498771354842697
F-0.0009638766433906461
F-0.0032186147326595505
F-0.00023822499952508378
F0.00360819793803461
F0.006439185131212347
tp346
abag0
(g11
g2
Ntp347
Rp348
(lp349
(F0.27400367883176796
F-0.24369884271886313
F1.150218784412294
F-0.016975570507923605
F0.08239622104312316
F0.21019650499917544
tp350
a(F2.4632229921727955e-05
F-0.0008593263790842693
F-0.003241550579567366
F-0.0006090221949138343
F0.0034840817879085565
F0.005850939008692591
tp351
abag0
(g11
g2
Ntp352
Rp353
(lp354
(F0.27399743696689277
F-0.24449554937800574
F1.1469669826470574
F-0.017793680677992006
F0.08581107239668793
F0.21569174876236752
tp355
a(F-5.178622832710741e-05
F-0.0007042316986686337
F-0.0032662799281107592
F-0.0011263108656608231
F0.003312122838901278
F0.004969693491728537
tp356
abag0
(g11
g2
Ntp357
Rp358
(lp359
(F0.2739203897918915
F-0.24512152654880623
F1.1436913995250602
F-0.019174431216489117
F0.08903722514702742
F0.22021368684788786
tp360
a(F-0.00011430170357625523
F-0.0005104710166056142
F-0.0032886567015554986
F-0.0017557440616868614
F0.003098764428781157
F0.0038607707459137643
tp361
abag0
(g11
g2
Ntp362
Rp363
(lp364
(F0.2737862062653645
F-0.2455438709664852
F1.140396329231336
F-0.02121319849423781
F0.09203678939974141
F0.22356651043888687
tp365
a(F-0.00016349552790048262
F-0.0002923114854398324
F-0.0033038764690440604
F-0.002455807865863514
F0.002852698373892176
F0.0026030715826905106
tp366
abag0
(g11
g2
Ntp367
Rp368
(lp369
(F0.27360778720586904
F-0.2457445049673649
F1.137091005791677
F-0.023961979859775634
F0.09478123526631159
F0.2256365280787204
tp370
a(F-0.00020041123309903349
F-6.539992488168708e-05
F-0.0033068004933553565
F-0.0031803795655060804
F0.0025842686386433424
F0.0012834439502729033
tp371
abag0
(g11
g2
Ntp372
Rp373
(lp374
(F0.27339684745616566
F-0.24572111686463366
F1.133789797108736
F-0.02742591719934142
F0.09725276564725618
F0.22639766238444384
tp375
a(F-0.000226444689830536
F0.00015432450460959023
F-0.0032923029082928073
F-0.003881530614421044
F0.002304779730373794
F-9.382351718484769e-06
tp376
abag0
(g11
g2
Ntp377
Rp378
(lp379
(F0.2731636144774785
F-0.24548701268218082
F1.1305120518873375
F-0.031562651557331914
F0.09944497849761078
F0.22591087618006528
tp380
a(F-0.0002432180079763571
F0.00035172070754145845
F-0.003255617674950097
F-0.0045123986753767935
F0.002025758403812037
F-0.0011908730782907596
tp381
abag0
(g11
g2
Ntp382
Rp383
(lp384
(F0.2729166558410378
F-0.24506990614939567
F1.1272816089679938
F-0.03628450641151209
F0.10136279230490025
F0.22431768368914368
tp385
a(F-0.00025244653409684187
F0.0005134649417586945
F-0.0031926623076686212
F-0.005029951826700676
F0.0017582192169502164
F-0.0021863639119333836
tp386
abag0
(g11
g2
Ntp387
Rp388
(lp389
(F0.27266283869042335
F-0.24450974563642736
F1.1241260008423422
F-0.04146332429794641
F0.10302165844912582
F0.22182830358469544
tp390
a(F-0.0002558084235819943
F0.0006289307936567175
F-0.003100317231312803
F-0.005397477986086671
F0.0015119829810731377
F-0.0029359513499242393
tp391
abag0
(g11
g2
Ntp392
Rp393
(lp394
(F0.272407414976582
F-0.24385574065319468
F1.121075402950864
F-0.04693762272539506
F0.10444613123147317
F0.2187053669004098
tp395
a(F-0.00025482575389160846
F0.0006908721778353658
F-0.0029766428809838443
F-0.005586652903524378
F0.0012950923746147594
F-0.003398279717108691
tp396
abag0
(g11
g2
Ntp397
Rp398
(lp399
(F0.27215421774933485
F-0.24316280243193333
F1.1181613964802277
F-0.052521600433649306
F0.10566790754067057
F0.21524438052244843
tp400
a(F-0.0002507650343393455
F0.0006958659768681473
F-0.0028210210430966855
F-0.005579069208181264
F0.001113361342915347
F-0.003552984823827146
tp401
abag0
(g11
g2
Ntp402
Rp403
(lp404
(F0.27190594658706846
F-0.24248764963308356
F1.115415623772759
F-0.058015422047245205
F0.10672348073458701
F0.2117523477271899
tp405
a(F-0.00024456334981889493
F0.0006444879308125601
F-0.0026342121503537624
F-0.005367144925934916
F0.0009700849681360423
F-0.0034016506820638355
tp406
abag0
(g11
g2
Ntp407
Rp408
(lp409
(F0.27166451481686055
F-0.24188484912510805
F1.1128684214545228
F-0.06321614387170524
F0.10765157535257551
F0.20852604876269
tp410
a(F-0.00023678437543728649
F0.0005412138999079363
F-0.002418325920142354
F-0.004954370182755374
F0.0008659249910879383
F-0.002967239787354654
tp411
abag0
(g11
g2
Ntp412
Rp413
(lp414
(F0.2714314278432922
F-0.24140306208742587
F1.1105475166742977
F-0.06792861926448815
F0.10849053950561148
F0.20583148151049896
tp415
a(F-0.00022760626378819424
F0.0003940573781522479
F-0.002176708479112972
F-0.0043548928106641035
F0.0007989739141118969
F-0.00229206253917204
tp416
abag0
(g11
g2
Ntp417
Rp418
(lp419
(F0.27120816083588095
F-0.241081747646786
F1.1084768665028764
F-0.07197573929230147
F0.10927586980836843
F0.2038858567396337
tp420
a(F-0.00021684109638002427
F0.00021397185525128196
F-0.0019137545607034725
F-0.0035924845603239656
F0.0007649884579647183
F-0.0014344502303531913
tp421
abag0
(g11
g2
Ntp422
Rp423
(lp424
(F0.2709965052324097
F-0.2409485413940525
F1.1066757100244977
F-0.07520742119819762
F0.11003802994807874
F0.20284334326625478
tp425
a(F-0.0002039833664039444
F1.4062125755117469e-05
F-0.001634658139221991
F-0.0026989670042655033
F0.0007577719065738819
F-0.00046438204816029953
tp426
abag0
(g11
g2
Ntp427
Rp428
(lp429
(F0.27079885685154004
F-0.24101747706912752
F1.1051578877510497
F-0.07750784900760836
F0.11080069964546692
F0.20278548059329368
tp430
a(F-0.00018828297254294647
F-0.0001913390874974977
F-0.0013451186669176623
F-0.0017122076841164268
F0.0007696752913783112
F0.0005416159605480701
tp431
abag0
(g11
g2
Ntp432
Rp433
(lp434
(F0.2706184235831779
F-0.2412881599946653
F1.103931464774433
F-0.07880059073565222
F0.11157955775712552
F0.20371684056703887
tp435
a(F-0.00016883658388160263
F-0.00038766457235051195
F-0.001051022673130664
F-0.0006738207442479476
F0.0007921800526565966
F0.0015059373051970566
tp436
abag0
(g11
g2
Ntp437
Rp438
(lp439
(F0.27045933722979354
F-0.2417459346967175
F1.1029986738143722
F-0.07905135680279003
F0.11238166404361787
F0.2055661491459434
tp440
a(F-0.00014469008676424919
F-0.0005611077562895973
F-0.0007581217163410238
F0.0003732791211242086
F0.00081652021224466
F0.0023553449822864315
tp441
abag0
(g11
g2
Ntp442
Rp443
(lp444
(F0.270326661608396
F-0.2423630211532251
F1.102356173401948
F-0.07826831503251118
F0.11320546149579153
F0.20819270038917193
tp445
a(F-0.00011494421352135894
F-0.0006995520925498723
F-0.0004717274938785409
F0.0013873158046234105
F0.0008343004502063841
F0.0030260302399094546
tp446
abag0
(g11
g2
Ntp447
Rp448
(lp449
(F0.2702262969409756
F-0.24310052889240258
F1.101995596265256
F-0.07650002916222992
F0.11404137805225262
F0.21139753327044392
tp450
a(F-7.885540964751684e-05
F-0.0007933727603065692
F-0.00019644334941674703
F0.002329935489639546
F0.0008380678409600653
F0.003467938169793973
tp451
abag0
(g11
g2
Ntp452
Rp453
(lp454
(F0.27016478829749163
F-0.24391120009350592
F1.1019043448786705
F-0.07383123052149076
F0.11487296599360655
F0.21493852233658153
tp455
a(F-3.5924509924589685e-05
F-0.0008360583315990862
F6.405139396673762e-05
F0.0031682007663271596
F0.0008217992111040209
F0.003648073658392115
tp456
abag0
(g11
g2
Ntp457
Rp458
(lp459
(F0.2701490528721824
F-0.24474268573957453
F1.1020665762632649
F-0.07037675761829545
F0.11567848196641514
F0.21854827675015528
tp460
a(F1.4033183240628011e-05
F-0.0008246130444182058
F0.00030715169532624594
F0.0038761834677066287
F0.0007812727815846327
F0.003552575486606426
tp461
abag0
(g11
g2
Ntp462
Rp463
(lp464
(F0.2701860466954306
F-0.24554112574985643
F1.1024643074065152
F-0.06627409839701472
F0.11643278275901175
F0.22195356544054778
tp465
a(F7.084137660235681e-05
F-0.0007597157664849875
F0.0005314036781195551
F0.004436073429752441
F0.0007143014394868637
F0.003187433994030569
tp466
abag0
(g11
g2
Ntp467
Rp468
(lp469
(F0.27028239562734085
F-0.2462547868992207
F1.103078566732007
F-0.06167503928280248
F0.11710939334831451
F0.22489489980983315
tp470
a(F0.00013394300904918426
F-0.000645628553700282
F0.000736505200171142
F0.004838753663927166
F0.000620815015075799
F0.002577822539107673
tp471
abag0
(g11
g2
Ntp472
Rp473
(lp474
(F0.270444017880841
F-0.24683751211886332
F1.103890516189382
F-0.05673696033825672
F0.11768259542168713
F0.22714491423270108
tp475
a(F0.0002024084577840112
F-0.000489864741627618
F0.000923232307706863
F0.005083827828266713
F0.0005027896058255754
F0.0017661084183796727
tp476
abag0
(g11
g2
Ntp477
Rp478
(lp479
(F0.27067576574998764
F-0.24725175121513912
F1.1048824727002289
F-0.051614315765668856
F0.11812938688770622
F0.22852428643719935
tp480
a(F0.00027497096214875014
F-0.00030264260245029277
F0.001093298642302763
F0.005179121041384799
F0.0003640325515754168
F0.0008086984418671984
tp481
abag0
(g11
g2
Ntp482
Rp483
(lp484
(F0.2709811126811197
F-0.24747097476744181
F1.1060387665000315
F-0.046450804750451796
F0.11843117543124647
F0.22891412642699757
tp485
a(F0.00035008658802938755
F-9.616468059873103e-05
F0.0012491591634333987
F0.005139707729710718
F0.00020984140737097194
F-0.00022804801596617902
tp486
abag0
(g11
g2
Ntp487
Rp488
(lp489
(F0.2713619084643478
F-0.24748131758664807
F1.1073463866692674
F-0.041372672597507654
F0.11857509086088505
F0.22826401992821108
tp490
a(F0.00042601436578985306
F0.00011622593191436654
F0.0013937729879778017
F0.004986548285859271
F4.656353791213532e-05
F-0.0012725450713048196
tp491
abag0
(g11
g2
Ntp492
Rp493
(lp494
(F0.27181822040760595
F-0.24728235241414415
F1.1087953799067138
F-0.03648349150409901
F0.11855483016024644
F0.2265952218232364
tp495
a(F0.0005009108787398087
F0.00032095361098293825
F0.0015303425178825728
F0.004744838154931004
F-0.00011891076185603138
F-0.00225301237544719
tp496
abag0
(g11
g2
Ntp497
Rp498
(lp499
(F0.27234827225444774
F-0.2468869546967306
F1.1103789862404811
F-0.03186066088732653
F0.11837098363721817
F0.22399883479973828
tp500
a(F0.0005729326445357178
F0.0005051203173487471
F0.0016620471906331862
F0.004442187323342101
F-0.0002796848163327793
F-0.0031024636318210366
tp501
abag0
(g11
g2
Ntp502
Rp503
(lp504
(F0.27294848576420494
F-0.24632028112905224
F1.1120935136691317
F-0.02755374670811434
F0.11803082789751114
F0.2206291548809174
tp505
a(F0.0006403391752510964
F0.000657356459813924
F0.0017917900906324422
F0.004106754356359306
F-0.00042938368254078326
F-0.0037633097444747074
tp506
abag0
(g11
g2
Ntp507
Rp508
(lp509
(F0.2736136227761476
F-0.24561794400858877
F1.1139379714294373
F-0.023584655952069752
F0.11754760894156516
F0.21669269488774542
tp510
a(F0.0007015896457963606
F0.0007685561132703369
F0.001921974335397117
F0.0037654569707377405
F-0.0005626370481648738
F-0.004191265638174654
tp511
abag0
(g11
g2
Ntp512
Rp513
(lp514
(F0.2743370187236496
F-0.24482351633112215
F1.1159134975174587
F-0.01994952450709849
F0.11693937392443364
F0.2124336869918653
tp515
a(F0.000755426632776904
F0.0008324488918019443
F0.00205432371320882
F0.0034423710473242787
F-0.0006754839481572415
F-0.004358301442174617
tp516
abag0
(g11
g2
Ntp517
Rp518
(lp519
(F0.27511089242018993
F-0.24398554550015603
F1.1180226292082809
F-0.016622091667800366
F0.11622744066727565
F0.2081170971169302
tp520
a(F0.0008009413613149625
F0.0008459725499032837
F0.0021897586859448612
F0.003157412907496182
F-0.0007656723208362877
F-0.004254447342123761
tp521
abag0
(g11
g2
Ntp522
Rp523
(lp524
(F0.27592671191908014
F-0.24315428379200457
F1.1202684748007588
F-0.013558248847832795
F0.11543461787448336
F0.204010342057486
tp525
a(F0.0008376162408580821
F0.0008094243941502233
F0.0023283348285956023
F0.0029253769567542977
F-0.0008328341340985704
F-0.0038883420707508825
tp526
abag0
(g11
g2
Ntp527
Rp528
(lp529
(F0.27677559268125845
F-0.24237835946934919
F1.122653850093815
F-0.010701388748555168
F0.1145833046955783
F0.20036497503823816
tp530
a(F0.0008653420837481132
F0.0007263848514942895
F0.0024692463428984735
F0.002755374133786607
F-0.0008785256853970752
F-0.0032865020739892043
tp531
abag0
(g11
g2
Ntp532
Rp533
(lp534
(F0.2776487023929524
F-0.24170161283997207
F1.125180443912914
F-0.007988147389014872
F0.11369360486556153
F0.19739959305960908
tp535
a(F0.000884409166892685
F0.0006034220079378004
F0.002610892764961948
F0.002650687901965023
F-0.000906132089024274
F-0.0024913758485641587
tp536
abag0
(g11
g2
Ntp537
Rp538
(lp539
(F0.2785376466612608
F-0.24116030683365403
F1.1278480733903233
F-0.005354126281957941
F0.11278158788713183
F0.19528512177751847
tp540
a(F0.0008954730933988761
F0.0004496005551572184
F0.0027510026937701427
F0.002609035770269646
F-0.0009206442610856742
F-0.0015583298531471022
tp541
abag0
(g11
g2
Ntp542
Rp543
(lp544
(F0.27943481146071303
F-0.2407808930561076
F1.1306540820011757
F-0.00273920491094444
F0.11185781795021933
F0.19413345861615264
tp545
a(F0.000899498113814888
F0.00027583138911235294
F0.0028868045859466018
F0.0026231974640729657
F-0.0009283252675877167
F-0.0005517832635874414
tp546
abag0
(g11
g2
Ntp547
Rp548
(lp549
(F0.2803336414673992
F-0.24057847392921247
F1.1335929221803538
F-9.210193488600512e-05
F0.11092625148899614
F0.1939902152324864
tp550
a(F0.0008976820606231737
F9.410825875129645e-05
F0.0030152316388272603
F0.0026819476311838743
F-0.0009362901487840604
F0.0004592359837638356
tp551
abag0
(g11
g2
Ntp552
Rp553
(lp554
(F0.281228838050623
F-0.2405560523538868
F1.1366559505281189
F0.0026260869999556787
F0.10998357794933808
F0.19483201346149745
tp555
a(F0.0008913682360966746
F-8.331527781852204e-05
F0.003133145709316066
F0.002771212816665325
F-0.0009520288080534958
F0.001405805464639805
tp556
abag0
(g11
g2
Ntp557
Rp558
(lp559
(F0.282116466356959
F-0.24070460579619007
F1.139831448153449
F0.005439561838222607
F0.10901904738895592
F0.19656847457247226
tp560
a(F0.0008819503965793336
F-0.0002447521774015562
F0.003237564212725742
F0.0028753604364936828
F-0.0009829049204893477
F0.0022237699024656027
tp561
abag0
(g11
g2
Ntp562
Rp563
(lp564
(F0.28299396721496073
F-0.24100396556502068
F1.1431048626939118
F0.00835679368925079
F0.10801479514160321
F0.1990487217361133
tp565
a(F0.0008707773472128109
F-0.0003798558059354861
F0.003325874061327599
F0.002978522242562759
F-0.0010356648890859255
F0.0028580347453901183
tp566
abag0
(g11
g2
Ntp567
Rp568
(lp569
(F0.28386007607122277
F-0.24142442813393672
F1.1464592530964475
F0.011370799161898591
F0.10694664025110966
F0.20207191180048537
tp570
a(F0.0008590635819588619
F-0.00048029014199393156
F0.0033960179072282932
F0.003065856439678151
F-0.0011159896280476913
F0.0032662050697891665
tp571
abag0
(g11
g2
Ntp572
Rp573
(lp574
(F0.28471465739508145
F-0.24192897726147256
F1.1498759043926141
F0.014460616709759302
F0.10578530298886743
F0.20540104517203137
tp575
a(F0.0008478118873348582
F-0.0005402528636922031
F0.0034466401455346346
F0.0031246608545187197
F-0.001228118514062157
F0.0034213310354687127
tp576
abag0
(g11
g2
Ntp577
Rp578
(lp579
(F0.28555846853982497
F-0.2424759565338759
F1.153335068373173
F0.017593806302603217
F0.10449795958867003
F0.20877908941703902
tp580
a(F0.0008377529170503344
F-0.0005568185299425585
F0.003477183143455987
F0.0031452635934982403
F-0.001374569493574158
F0.0033135844931058774
tp581
abag0
(g11
g2
Ntp582
Rp583
(lp584
(F0.2863928715557744
F-0.2430220042849201
F1.156816777989625
F0.020729727722986934
F0.10305003111809807
F0.2119463068567289
tp585
a(F0.0008293055073408032
F-0.000530081742111179
F0.0034879277683359457
F0.0031216363126334704
F-0.0015559724671192557
F0.0029507657547841446
tp586
abag0
(g11
g2
Ntp587
Rp588
(lp589
(F0.28721951462505674
F-0.24352504831864963
F1.160301678978141
F0.023823306756232333
F0.10140708947060198
F0.21465760786687743
tp590
a(F0.0008225600289181389
F-0.00046309399681903767
F0.0034799762352563657
F0.0030516971227458837
F-0.0017710251846548262
F0.0023576198008182854
tp591
abag0
(g11
g2
Ntp592
Rp593
(lp594
(F0.2880400064349412
F-0.2439471572376406
F1.1637718218430915
F0.026828975058458254
F0.09953675760389212
F0.21669876343823127
tp595
a(F0.0008172854653437751
F-0.0003616019631005723
F0.0034551793069581933
F0.0029372936511032986
F-0.0020165725313190195
F0.0015740218048714775
tp596
abag0
(g11
g2
Ntp597
Rp598
(lp599
(F0.28885560683905226
F-0.244257058275653
F1.167211360906338
F0.02970446946879678
F0.09741048360414302
F0.2179004009505665
tp600
a(F0.0008129592807596356
F-0.00023360818776376952
F0.0034160136800758657
F0.002783880193386368
F-0.002287801834007944
F0.0006521673633320749
tp601
abag0
(g11
g2
Ntp602
Rp603
(lp604
(F0.2896669555977058
F-0.2444321572405685
F1.170607114310215
F0.03241419923400652
F0.09500507859258142
F0.21814886892353233
tp605
a(F0.0008088176032858007
F-8.878686820851688e-05
F0.003365418726048195
F0.0025999245860185353
F-0.0025785392294064543
F-0.0003470318154391665
tp606
abag0
(g11
g2
Ntp607
Rp608
(lp609
(F0.29047385797190833
F-0.24445993254938106
F1.1739489491010395
F0.03493193272568329
F0.09230392605079459
F0.21739327786933954
tp610
a(F0.0008039219070078374
F6.220342641580883e-05
F0.003306604402841886
F0.002396098938501045
F-0.0028816257013825337
F-0.0013580950450187215
tp611
abag0
(g11
g2
Ntp612
Rp613
(lp614
(F0.2912751416990766
F-0.24433861975156426
F1.1772299680610858
F0.03724261507600379
F0.08929779350109647
F0.21564828956712986
tp615
a(F0.0007972373134580801
F0.0002084619415981132
F0.0032428439457334655
F0.0021843224773402427
F-0.0031893465291805384
F-0.0023153775886303684
tp616
abag0
(g11
g2
Ntp617
Rp618
(lp619
(F0.29206859471095353
F-0.24407715226065774
F1.1804464889009327
F0.03934319998584401
F0.0859852049529954
F0.21299251764674687
tp620
a(F0.0007877169203756412
F0.00033959177644332216
F0.003177265774027502
F0.001976733592320863
F-0.0034938848825473057
F-0.0031574346914358745
tp621
abag0
(g11
g2
Ntp622
Rp623
(lp624
(F0.2928509872316917
F-0.24369437483656445
F1.1835978207911597
F0.0412424572993726
F0.08237236218900239
F0.20956269839454625
tp625
a(F0.0007743862440142569
F0.0004463993034397763
F0.0031126588754654015
F0.0017846712555125049
F-0.0037877693189278224
F-0.003831052669869357
tp626
abag0
(g11
g2
Ntp627
Rp628
(lp629
(F0.2936181760145056
F-0.24321759522762565
F1.1866858570103225
F0.042959797002090946
F0.07847263277892229
F0.20554407216782272
tp630
a(F0.0007564219467590386
F0.0005215004777984905
F0.0030513047800425908
F0.0016177432296773104
F-0.0040642860043024935
F-0.004294681224008829
tp631
abag0
(g11
g2
Ntp632
Rp633
(lp634
(F0.294365282840646
F-0.24268058302545503
F1.1897145147783632
F0.04452322438632435
F0.07430565068046056
F0.20115766397830484
tp635
a(F0.0007332195018359677
F0.0005597945988286303
F0.0029948472048301716
F0.0014830502304567102
F-0.004317829477669059
F-0.004521044885129483
tp636
abag0
(g11
g2
Ntp637
Rp638
(lp639
(F0.29508693439351097
F-0.24212116034620662
F1.1926890633128553
F0.04596660502776966
F0.0698960995716217
F0.19664535043516226
tp640
a(F0.0007044452824143615
F0.0005587756861202626
F0.002944207694438235
F0.0013846221669199204
F-0.004544170466370023
F-0.004498769597134339
tp641
abag0
(g11
g2
Ntp642
Rp643
(lp644
(F0.29577754656373784
F-0.24157855416137358
F1.195615388143822
F0.047326467557209026
F0.06527226812026932
F0.1922537366448619
tp645
a(F0.0006700696909123886
F0.00051866309045572
F0.002899552298224489
F0.0013231057876002684
F-0.0047406252835951535
F-0.004232928744312151
tp646
abag0
(g11
g2
Ntp647
Rp648
(lp649
(F0.2964316333982622
F-0.24109069342722778
F1.1984992433187456
F0.048638603748356976
F0.06046447906685339
F0.1882179325379277
tp650
a(F0.0006303792844898946
F0.0004423454695089564
F0.0028603107481127007
F0.0012957237744202297
F-0.004906118266119023
F-0.0037444867353722006
tp651
abag0
(g11
g2
Ntp652
Rp653
(lp654
(F0.29704411945115344
F-0.24069163489981285
F1.2013455431297868
F0.049934737261501765
F0.05550349957129206
F0.18474630998566233
tp655
a(F0.0005859673102231183
F0.0003351449597161275
F0.002825245979032968
F0.0012965049726835563
F-0.005041136053970366
F-0.0030686924901689363
tp656
abag0
(g11
g2
Ntp657
Rp658
(lp659
(F0.2976106343031781
F-0.24040928982856238
F1.204157741455768
F0.05123952400504693
F0.05041903854070639
F0.18200724156534206
tp660
a(F0.0005377035375856353
F0.00020442040758747408
F0.0027925684156310587
F0.0013167654853241503
F-0.005147579771136258
F-0.00225254484925588
tp661
abag0
(g11
g2
Ntp662
Rp663
(lp664
(F0.2981277694666465
F-0.24026360058944327
F1.2069373400286734
F0.052568119466135765
F0.04523842789385718
F0.18011867536113665
tp665
a(F0.00048668566643433815
F5.903908481686034e-05
F0.0027600864642645896
F0.0013458022009912019
F-0.005228527851363777
F-0.0013515124151933342
tp666
abag0
(g11
g2
Ntp667
Rp668
(lp669
(F0.29859328066108304
F-0.24026528349732296
F1.2096835574217049
F0.053924503825456375
F0.03998556967972834
F0.17914119852642627
tp670
a(F0.0004341758028613576
F-9.124528713923941e-05
F0.0027253822954291114
F0.0013717452222632538
F-0.005287927928807892
F-0.00042573770154332233
tp671
abag0
(g11
g2
Ntp672
Rp673
(lp674
(F0.29900622232512103
F-0.24041521390187975
F1.212393179005036
F0.055300697676395984
F0.03468021080616002
F0.1790749998147121
tp675
a(F0.00038152645364854693
F-0.00023646466769458916
F0.0026860004295627938
F0.0013825046289026302
F-0.0053302405206610325
F0.00046401328558780795
tp676
abag0
(g11
g2
Ntp677
Rp678
(lp679
(F0.2993670059404199
F-0.24070448505164932
F1.2150605953466136
F0.05667693407525318
F0.029337583322685254
F0.17986087478483448
tp680
a(F0.0003301011319079651
F-0.00036711277115837577
F0.002639635943969345
F0.0013667407646358336
F-0.005360059909286073
F0.0012603816455187843
tp681
abag0
(g11
g2
Ntp682
Rp683
(lp684
(F0.2996773789522953
F-0.24111512619305375
F1.217678023439461
F0.05802278139020722
F0.023968422424715294
F0.18138514514333937
tp685
a(F0.00028119495349936943
F-0.00047477936008732377
F0.0025843093344639616
F0.0013147861400223926
F-0.005381738541620851
F0.0019131573253344575
tp686
abag0
(g11
g2
Ntp687
Rp688
(lp689
(F0.29994032641876767
F-0.24162142108573603
F1.2202358926135766
F0.059299141142574445
F0.018579348382489008
F0.1834881040643224
tp690
a(F0.00023596052232474098
F-0.0005527006012265135
F0.002518516163810939
F0.0012194510974343977
F-0.005399040383231023
F0.0023824863082398066
tp691
abag0
(g11
g2
Ntp692
Rp693
(lp694
(F0.30015990264099074
F-0.24219172852430698
F1.222723365886739
F0.06046098074828067
F0.013173574197788777
F0.18597536956952526
tp695
a(F0.00019534396411600784
F-0.0005961896829650246
F0.0024413415219660087
F0.0010766542257325733
F-0.005414846094122781
F0.002641337037670447
tp696
abag0
(g11
g2
Ntp697
Rp698
(lp699
(F0.30034100458084617
F-0.24279067415638014
F1.2251289585619454
F0.06146060727996753
F0.007751879558454241
F0.18863134314247298
tp700
a(F0.0001600352083292243
F-0.0006029205624740195
F0.0023525318697245343
F0.0008858314517146901
F-0.005430928845758982
F0.00267707261401834
tp701
abag0
(g11
g2
Ntp702
Rp703
(lp704
(F0.3004891025572239
F-0.24338155993940294
F1.2274412096695153
F0.062251248788712424
F0.0023137749485286968
F0.1912338424379612
tp705
a(F0.0001304355928807086
F-0.0005730480702772938
F0.00225251985444647
F0.0006500938071840697
F-0.005447814380926033
F0.002492037565392162
tp706
abag0
(g11
g2
Ntp707
Rp708
(lp709
(F0.30060994629601845
F-0.24392882538087973
F1.2296493587637336
F0.06279068700884453
F-0.0031412314025515814
F0.1935689130020331
tp710
a(F0.00010664465034004067
F-0.00050915892271683
F0.0021424009616949546
F0.00037612190495920576
F-0.005464732909311268
F0.0021031354494407566
tp711
abag0
(g11
g2
Ntp712
Rp713
(lp714
(F0.300709265733394
F-0.24440039390597043
F1.2317439807838286
F0.06304468086168805
F-0.008612356065142835
F0.19544482766568638
tp715
a(F8.846661218977381e-05
F-0.0004160596982324128
F0.0020238641731576005
F7.380386520555566e-05
F-0.00547966405558237
F0.0015404415785660994
tp716
abag0
(g11
g2
Ntp717
Rp718
(lp719
(F0.30079248596833585
F-0.24476974816069938
F1.2337175351173055
F0.06298993421553811
F-0.014096343451533079
F0.19670435244620055
tp720
a(F7.543583099034522e-05
F-0.0003004187415773533
F0.0018990819136622604
F-0.0002443585022807158
F-0.005489469772008777
F0.0008449591940934937
tp721
abag0
(g11
g2
Ntp722
Rp723
(lp724
(F0.3008644744507628
F-0.24501759889707833
F1.2355647913816912
F0.06261639269919804
F-0.019586432921549768
F0.1972344886657792
tp725
a(F6.685905937226728e-05
F-0.00017028854410104565
F0.0017705672795593028
F-0.000564034287745816
F-0.005490104317696277
F6.568320190383512e-05
tp726
abag0
(g11
g2
Ntp727
Rp728
(lp729
(F0.3009293359853335
F-0.24513304172123113
F1.23728310329348
F0.06192870066066143
F-0.025071560625243988
F0.19697308286599657
tp730
a(F6.18714237211924e-05
F-3.454278238914565e-05
F0.0016410086688161457
F-0.0008699847070416086
F-0.005476885471350948
F-0.0007438205035225348
tp731
abag0
(g11
g2
Ntp732
Rp733
(lp734
(F0.3009902676174262
F-0.24511413227164777
F1.2388725126840217
F0.0609467072522347
F-0.030535849407413877
F0.19591191596435586
tp735
a(F5.950206104296781e-05
F9.773260189610765e-05
F0.0015130933435851081
F-0.0011470575467507156
F-0.00544480739603631
F-0.0015290828311126374
tp736
abag0
(g11
g2
Ntp737
Rp738
(lp739
(F0.3010494812005218
F-0.24496785077234307
F1.240335677498984
F0.05970497598208051
F-0.03595841957133633
F0.19409612561346523
tp740
a(F5.874480477170229e-05
F0.00021785244268823355
F0.0013893320632277317
F-0.0013811866161258666
F-0.005388873236869313
F-0.002238396229682599
tp741
abag0
(g11
g2
Ntp742
Rp743
(lp744
(F0.30110819672405936
F-0.24470946858077944
F1.2416776296655765
F0.0582513203018716
F-0.041313531054049966
F0.19162006424061043
tp745
a(F5.8629043909147826e-05
F0.0003181080830732949
F0.0012718967000434132
F-0.0015603279621848013
F-0.005304424729475806
F-0.002826230331707097
tp746
abag0
(g11
g2
Ntp747
Rp748
(lp749
(F0.3011667046341495
F-0.24436136948677206
F1.2429053802079302
F0.056644454156027445
F-0.04657104514412149
F0.18861993297074137
tp750
a(F5.8285952259792085e-05
F0.00039226757628057503
F0.0011624817184394348
F-0.0016752692872423992
F-0.005187446845009259
F-0.0032561730764164585
tp751
abag0
(g11
g2
Ntp752
Rp753
(lp754
(F0.3012244907359071
F-0.24395141443038781
F1.2440273991629416
F0.054950906337911457
F-0.051697172790432795
F0.1852637427541526
tp755
a(F5.7005680288482075e-05
F0.00043596786039887714
F0.0010621986424201103
F-0.001720258028291221
F-0.00503482770801238
F-0.0035032073326204745
tp756
abag0
(g11
g2
Ntp757
Rp758
(lp759
(F0.3012804131360515
F-0.24351096763753263
F1.245053006024392
F0.05324139691611068
F-0.05665545819481156
F0.18173932474570428
tp760
a(F5.428178921980296e-05
F0.0004469742458292518
F0.0009715102854020473
F-0.0016934062438531579
F-0.004844557510956691
F-0.0035551807198987056
tp761
abag0
(g11
g2
Ntp762
Rp763
(lp764
(F0.30133291733847284
F-0.24307272304811645
F1.2459917120949908
F0.051586909613003114
F-0.061407931921440756
F0.17824123145554885
tp765
a(F4.984013419525377e-05
F0.0004252919246147041
F0.0008902087382456201
F-0.0015968458910292044
F-0.004615854646625205
F-0.003413382842305499
tp766
abag0
(g11
g2
Ntp767
Rp768
(lp769
(F0.3013802732568762
F-0.2426684810618843
F1.2468525589053612
F0.0500547135287852
F-0.06591635806878299
F0.1749574311646492
tp770
a(F4.3650503987639224e-05
F0.0003731244600453389
F0.0008174381002836055
F-0.0014366251706116973
F-0.004349212457526804
F-0.003092205565570858
tp771
abag0
(g11
g2
Ntp772
Rp773
(lp774
(F0.3014208166996682
F-0.24232702645771442
F1.24764349661665
F0.048704589830873196
F-0.0701434956676715
F0.17205669736997495
tp775
a(F3.592052168784053e-05
F0.00029468463633573695
F0.0007517599012190087
F-0.001222354178421543
F-0.004046365493226231
F-0.002617924080648772
tp776
abag0
(g11
g2
Ntp777
Rp778
(lp779
(F0.3014531778758538
F-0.24207224896700053
F1.248370843116761
F0.04758550399465869
F-0.07405429555274277
F0.16967753359204993
tp780
a(F2.7072521434068667e-05
F0.00019587293457532383
F0.0006912563049684779
F-0.0009666249170170358
F-0.003710179592721532
F-0.002026695113804022
tp781
abag0
(g11
g2
Ntp782
Rp783
(lp784
(F0.30147648064743193
F-0.24192162920218982
F1.2490388586063994
F0.046732933093117
F-0.07761696029050125
F0.16791935680866701
tp785
a(F1.7705258579860507e-05
F8.38475930671557e-05
F0.0006336637005642229
F-0.0006842456508708131
F-0.003344475104627926
F-0.001361919875014015
tp786
abag0
(g11
g2
Ntp787
Rp788
(lp789
(F0.301490498514544
F-0.2418851858817494
F1.2496494622868517
F0.04616701278033526
F-0.0808038057733207
F0.16683649880720675
tp790
a(F8.543308595279036e-06
F-3.34828604611632e-05
F0.0005765273329471222
F-0.0003913416316510224
F-0.0029537967961683464
F-0.0006711598467272889
tp791
abag0
(g11
g2
Ntp792
Rp793
(lp794
(F0.3014957564936909
F-0.2419649474931303
F1.2502021078906564
F0.04589161320144484
F-0.08359187793922916
F0.16643538563215515
tp795
a(F3.7779838636364313e-07
F-0.0001480089901728085
F0.0005173663322749224
F-0.00010438259092350519
F-0.0025431472157195624
F-2.820740111340025e-06
tp796
abag0
(g11
g2
Ntp797
Rp798
(lp799
(F0.30149357190704457
F-0.24215497501272415
F1.2506938239287448
F0.04589439097409852
F-0.0859632956507392
F0.1666750349893314
tp800
a(F-5.997357234932613e-06
F-0.0002519738911957767
F0.00045383794232539454
F0.00016079842992812007
F-0.0021177022721356044
F0.0005971677454135731
tp801
abag0
(g11
g2
Ntp802
Rp803
(lp804
(F0.30148603137015567
F-0.24244192458734776
F1.2511194134104588
F0.04614779991624817
F-0.08790530980513292
F0.1674707851150603
tp805
a(F-9.84930296063144e-06
F-0.0003384931865108944
F0.00038388995391117726
F0.00038993059924338346
F-0.0016825284738572763
F0.0010884519342534676
tp806
abag0
(g11
g2
Ntp807
Rp808
(lp809
(F0.30147590565082133
F-0.24280610274578965
F1.2514717971795013
F0.04661098074022455
F-0.08941008793018236
F0.16870095156538095
tp810
a(F-1.0565827142582655e-05
F-0.00040200696816463483
F0.00030589129320659494
F0.0005711154605352789
F-0.0012423206206981308
F0.0014389278127903415
tp811
abag0
(g11
g2
Ntp812
Rp813
(lp814
(F0.30146650827522187
F-0.2432229341866762
F1.2517424756080682
F0.047232393696958405
F-0.09047425154536427
F0.1702159151081538
tp815
a(F-7.706692092997116e-06
F-0.00043863424999641905
F0.00021873232328672881
F0.0006954706306300293
F-0.0008011768405457595
F0.0016268140387099633
tp816
abag0
(g11
g2
Ntp817
Rp818
(lp819
(F0.30146150749769
F-0.2436647356180517
F1.2519220758199114
F0.04795301185872387
F-0.09109820925415138
F0.1718489870712239
tp820
a(F-1.043340107318371e-06
F-0.0004464075862218923
F0.0001218885720291455
F0.0007575678479482614
F-0.0003624248742535429
F0.001641993216508531
tp821
abag0
(g11
g2
Ntp822
Rp823
(lp824
(F0.3014647042827347
F-0.24410267020494408
F1.2520009463555475
F0.048709859366989045
F-0.09128534088323641
F0.17342828813031352
tp825
a(F9.415557829532334e-06
F-0.00042537399339382737
F1.5444147753229614e-05
F0.0007556405991928919
F7.149033342313634e-05
F0.001486541669060107
tp826
abag0
(g11
g2
Ntp827
Rp828
(lp829
(F0.30147979107940875
F-0.24450874706882195
F1.2519697585709852
F0.04943966061266631
F-0.09104109625775868
F0.17478881935032492
tp830
a(F2.3414249514073878e-05
F-0.0003775575958123529
F-9.992613175054762e-05
F0.0006915524254261906
F0.0004990520970223572
F0.00117442387599589
tp831
abag0
(g11
g2
Ntp832
Rp833
(lp834
(F0.3015101072702774
F-0.2448577295175781
F1.2518200742147931
F0.05008236397500561
F-0.09037207595243722
F0.1757839033796725
tp835
a(F4.04562031200631e-05
F-0.00030678885523349167
F-0.00022301408005266505
F0.0005705332387959152
F0.0009196495434282451
F0.0007303844611240504
tp836
abag0
(g11
g2
Ntp837
Rp838
(lp839
(F0.30155840719361615
F-0.24512882416549062
F1.251544841507847
F0.050584317330158876
F-0.08928516046034456
F0.17629522826215552
tp840
a(F5.9825928028390534e-05
F-0.00021841420317375858
F-0.00035217050631417923
F0.0004007064554181399
F0.0013334908996017938
F0.00018812426331492186
tp841
abag0
(g11
g2
Ntp842
Rp843
(lp844
(F0.3016266555861722
F-0.24530704010427504
F1.2511387874237858
F0.05090090087215036
F-0.08778674886580039
F0.17624083187391834
tp845
a(F8.06246496434909e-05
F-0.00011890776966027322
F-0.00048542586260897686
F0.00019244342177196868
F0.001741460391989449
F-0.00041210594862785965
tp846
abag0
(g11
g2
Ntp847
Rp848
(lp849
(F0.3017158632652215
F-0.24538413151846142
F1.2505986813398413
F0.05099846369805502
F-0.08588215878402207
F0.175580513648042
tp850
a(F0.00010181727403578776
F-1.5413180152871976e-05
F-0.0006206306252988887
F-4.240742690420014e-05
F0.0021449302137975046
F-0.0010263232243239956
tp851
abag0
(g11
g2
Ntp852
Rp853
(lp854
(F0.3018259730180065
F-0.2453590668417276
F1.2499234542659872
F0.05085546109789216
F-0.08357522678117224
F0.17431834136421032
tp855
a(F0.00012228736969910957
F8.47523268439578e-05
F-0.0007556056521010915
F-0.00029136169711977723
F0.0025455417188104115
F-0.0016098454819032987
tp856
abag0
(g11
g2
Ntp857
Rp858
(lp859
(F0.3019558022025106
F-0.24523800062407766
F1.2491141678366298
F0.050462745949315845
F-0.08086813365467221
F0.17250212167603163
tp860
a(F0.0001408964205494721
F0.00017459718312536743
F-0.0008882922188056617
F-0.0005421518226494452
F0.002944971668776721
F-0.0021203320158956966
tp861
abag0
(g11
g2
Ntp862
Rp863
(lp864
(F0.3021030447327526
F-0.24503375842690345
F1.2481738374811595
F0.04982302608395246
F-0.07776146290253787
F0.17021990990002409
tp865
a(F0.00015654339480000877
F0.0002479242269744798
F-0.0010168915994974654
F-0.0007835332942407218
F0.00334469991336993
F-0.0025206261087842153
tp866
abag0
(g11
g2
Ntp867
Rp868
(lp869
(F0.3022643311920421
F-0.24476487795201776
F1.247107123988633
F0.04894955592472618
F-0.07425448455987131
F0.16759383337691683
tp870
a(F0.00016822073839343078
F0.0002997375704139678
F-0.0011399848902476245
F-0.001005990532905637
F0.003745794313903832
F-0.0027812106777695025
tp871
abag0
(g11
g2
Ntp872
Rp873
(lp874
(F0.30243534205886297
F-0.24445427903213748
F1.2459199163982306
F0.04786418125124422
F-0.07034564142076263
F0.16477168016585847
tp875
a(F0.00017506323031023994
F0.00032656098366304505
F-0.0012566252220929481
F-0.0012022966399596164
F0.004148727107667656
F-0.0028821166709572586
tp876
abag0
(g11
g2
Ntp877
Rp878
(lp879
(F0.3026109656959939
F-0.24412765912456055
F1.2446188362141717
F0.04659489725515277
F-0.06603320148355044
F0.1619168493044337
tp880
a(F0.00017638670341744048
F0.00032664762039806534
F-0.0013663964583350379
F-0.0013678923063701362
F0.004553234391793072
F-0.0028141630863584076
tp881
abag0
(g11
g2
Ntp882
Rp883
(lp884
(F0.3027854900645931
F-0.2438117280146232
F1.2432106979140138
F0.045173109409734825
F-0.061316030079336115
F0.15919736111115232
tp885
a(F0.00017171439585240736
F0.00030006861077337227
F-0.0014694347852818883
F-0.001501062421666885
F0.004958227184474848
F-0.0025794542356090567
tp886
abag0
(g11
g2
Ntp887
Rp888
(lp889
(F0.30295281525385975
F-0.2435324045040131
F1.2417019632927717
F0.04363080227283711
F-0.05619442817299034
F0.15677467974841516
tp890
a(F0.00016078959881119732
F0.0002486764763466221
F-0.0015664121237888855
F-0.001602903439930194
F0.005361758839748367
F-0.0021911109556062573
tp891
abag0
(g11
g2
Ntp892
Rp893
(lp894
(F0.30310667297715177
F-0.2433130984426886
F1.240098227227331
F0.041997822323236136
F-0.050670980115430427
F0.15479310258415346
tp895
a(F0.0001435742428319397
F0.00017594788947300572
F-0.0016584828395351167
F-0.0016770893141650662
F0.005761049716548324
F-0.0016722643853054205
tp896
abag0
(g11
g2
Ntp897
Rp898
(lp899
(F0.3032408392247741
F-0.24317319365638643
F1.2384037699930044
F0.040299467475864624
F-0.044751354759847047
F0.15337042237272364
tp900
a(F0.00012023404776957089
F8.671842633485225e-05
F-0.0017471976417861644
F-0.001729457774625351
F0.006152566204931921
F-0.0010543901672177493
tp901
abag0
(g11
g2
Ntp902
Rp903
(lp904
(F0.30334932726145775
F-0.24312683178617014
F1.2366212065197557
F0.03855454920777889
F-0.03844500815120464
F0.1525904729148823
tp905
a(F9.111178364559786e-05
F-1.3170896470456026e-05
F-0.0018343906745397957
F-0.0017674509430011971
F0.006532147749439071
F-0.00037510423034030154
tp906
abag0
(g11
g2
Ntp907
Rp908
(lp909
(F0.303426550026285
F-0.24318207496752542
F1.2347512562923433
F0.03677405533594478
F-0.031765743531628844
F0.15249803374003879
tp910
a(F5.669098751602309e-05
F-0.00011728982573142208
F-0.0019220474842211977
F-0.0017994539173524057
F0.006895172607149529
F0.0003244241621879888
tp911
abag0
(g11
g2
Ntp912
Rp913
(lp914
(F0.30346744358879
F-0.24334049823553355
F1.232792649452617
F0.034960495250897124
F-0.024732094541346557
F0.1530964041394421
tp915
a(F1.7553101842519013e-05
F-0.00021906847121915777
F-0.0020121626897781843
F-0.0018340813950466336
F0.007236750915114154
F0.0010022628559081563
tp916
abag0
(g11
g2
Ntp917
Rp918
(lp919
(F0.30346754644308765
F-0.24359723246200668
F1.2307421756190204
F0.033107958202416535
F-0.017367509447039582
F0.1543477731081808
tp920
a(F-2.5668598149596696e-05
F-0.00031224913974434545
F-0.0021065967174243383
F-0.001879465215591549
F0.007551932339846276
F0.0016185203222559446
tp921
abag0
(g11
g2
Ntp922
Rp923
(lp924
(F0.30342303285360367
F-0.2439414475990848
F1.2285948726133666
F0.031202862733788136
F-0.009700327112861621
F0.15617632204881424
tp925
a(F-7.233476222373483e-05
F-0.00039130956897600423
F-0.00220694086854299
F-0.0019425947505896585
F0.007835915197382342
F0.002137973624493406
tp926
abag0
(g11
g2
Ntp927
Rp928
(lp929
(F0.30333070195438694
F-0.24435723614295007
F1.2263443433010888
F0.02922532529432807
F-0.001763548329934333
F0.15847381428821042
tp930
a(F-0.00012184197545175838
F-0.00045182914129116415
F-0.002314399283352437
F-0.002028757455876113
F0.008084244456510466
F0.0025323466508193632
tp931
abag0
(g11
g2
Ntp932
Rp933
(lp934
(F0.3031879276010044
F-0.24482483005039576
F1.2239831806968853
F0.027151031936073298
F0.006405581840825672
F0.16110726175008608
tp935
a(F-0.00017365792448945983
F-0.0004907739655220049
F-0.002429695103638811
F-0.0021411189958848976
F0.008292987396824988
F0.002782090377262581
tp936
abag0
(g11
g2
Ntp937
Rp938
(lp939
(F0.30299257684749104
F-0.24532206260305472
F1.2215034748780076
F0.024953461874546064
F0.014766154662734995
F0.16392812523797934
tp940
a(F-0.00022734717589599466
F-0.0005066825937498276
F-0.0025530064201339593
F-0.0022804717422564595
F0.008458877757423516
F0.002877552457644985
tp941
abag0
(g11
g2
Ntp942
Rp943
(lp944
(F0.30274290717032176
F-0.24582597132019285
F1.218897370490754
F0.022606287956520976
F0.02327430708777311
F0.16678240928747096
tp945
a(F-0.0002825857515826137
F-0.0004997411687227866
F-0.0026839355379931038
F-0.002445167909744469
F0.008579421805872902
F0.002819466037378166
tp946
abag0
(g11
g2
Ntp947
Rp948
(lp949
(F0.30243745403169137
F-0.24631442992070848
F1.216157641008135
F0.020085768297368668
F0.03188402033265294
F0.16952096131022068
tp950
a(F-0.0003391635395317507
F-0.0004717444810735253
F-0.0028215128515419585
F-0.002631240021950766
F0.008652962673463143
F0.0026187343888651265
tp951
abag0
(g11
g2
Ntp952
Rp953
(lp954
(F0.30207492096584715
F-0.2467676969690493
F1.2132782455260078
F0.017372946169175674
F0.040547965672348765
F0.17200928058641834
tp955
a(F-0.00039697449470165537
F-0.0004259472234160651
F-0.00296423434131625
F-0.002832697760681139
F0.008678702318892347
F0.0022955355735466954
tp956
abag0
(g11
g2
Ntp957
Rp958
(lp959
(F0.30165408404706523
F-0.2471697761177976
F1.2102548357449678
F0.014455491318601695
F0.04921835598835596
F0.1741361851760355
tp960
a(F-0.00045599550125983377
F-0.00036681712935739537
F-0.003110129546150214
F-0.003041977506083065
F0.008656683376301991
F0.001877816639892512
tp961
abag0
(g11
g2
Ntp962
Rp963
(lp964
(F0.30117372138241405
F-0.24750949717442036
F1.2070851847003514
F0.011329044018131397
F0.057847764902001275
F0.17582077049431247
tp965
a(F-0.0005162556191828995
F-0.0002997081838152676
F-0.0032568549634596853
F-0.0032505099111757095
F0.008587735709764266
F0.0013992868603378804
tp966
abag0
(g11
g2
Ntp967
Rp968
(lp969
(F0.3006325762548859
F-0.24778124749591277
F1.2037695144627594
F0.007997961215433218
F0.06638988097983498
F0.1770172157688955
tp970
a(F-0.0005777981668369016
F-0.00023047725976290323
F-0.0034018063142333085
F-0.0034493624345717853
F0.00847339456093384
F0.0008970515864170741
tp971
abag0
(g11
g2
Ntp972
Rp973
(lp974
(F0.30002935986641355
F-0.2479853079895112
F1.2003107070155545
F0.004475409365161902
F0.07480017196401204
F0.1777171451237667
tp975
a(F-0.0006406386461929569
F-0.000165071045105397
F-0.003542242069531842
F-0.0036299084579051906
F0.008315798608706806
F0.0004090504229737962
tp976
abag0
(g11
g2
Ntp977
Rp978
(lp979
(F0.2993627964846749
F-0.24812777552395301
F1.196714390322799
F0.0007827976382566153
F0.08303644259098004
F0.17794941812217896
tp980
a(F-0.0007047218607227697
F-0.0001091117587508773
F-0.0036754101321892483
F-0.0037844727979235012
F0.008117576979922166
F-2.8525749812022773e-05
tp981
abag0
(g11
g2
Ntp982
Rp983
(lp984
(F0.29863171040359304
F-0.24822008192703637
F1.1929888996854918
F-0.003051405321559849
F0.09105927859522278
F0.1777773987257469
tp985
a(F-0.0007698816842374092
F-6.750983409230759e-05
F-0.0037986696229120195
F-0.003906905201692996
F0.007881734234816548
F-0.00038366540538990014
tp986
abag0
(g11
g2
Ntp987
Rp988
(lp989
(F0.2978351507232556
F-0.2482781470256764
F1.1891451222938196
F-0.0069933816260887485
F0.09883237822884454
F0.1772939200312698
tp990
a(F-0.0008358068045465396
F-4.412952185066852e-05
F-0.003909600317587543
F-0.0039930386508559386
F0.00761154163263888
F-0.0006306537905613863
tp991
abag0
(g11
g2
Ntp992
Rp993
(lp994
(F0.2969725467795618
F-0.24832122754109226
F1.1851962398977265
F-0.011006072073275247
F0.10632278039365119
F0.17661431362772181
tp995
a(F-0.0009020153978750829
F-4.152941165610813e-05
F-0.004006093369167103
F-0.00404099762168583
F0.007310441646319946
F-0.0007517395126811117
tp996
abag0
(g11
g2
Ntp997
Rp998
(lp999
(F0.2960438843308035
F-0.2483705434763293
F1.1811573902830903
F-0.015051522012703732
F0.1135010047141178
F0.17586799706865155
tp1000
a(F-0.0009678411133069914
F-6.0794486239706655e-05
F-0.004086418437434172
F-0.004051332263480222
F0.006981970869740054
F-0.000738244791056426
tp1001
abag0
(g11
g2
Ntp1002
Rp1003
(lp1004
(F0.2950498905306375
F-0.2484477776490051
F1.1770452723977702
F-0.019093286411353796
F0.12034112315430541
F0.17518920281897063
tp1005
a(F-0.0010324319999761584
F-0.00010146988974704748
F-0.004149264131807863
F-0.004026967009015809
F0.006629704310141845
F-0.000591052589128388
tp1006
abag0
(g11
g2
Ntp1007
Rp1008
(lp1009
(F0.29399221443412465
F-0.24857355136438025
F1.1728777222811226
F-0.023098709316276448
F0.12682078484807457
F0.17470748159717345
tp1010
a(F-0.0010947631434742465
F-0.00016159956369853838
F-0.004193750616720269
F-0.0039729655393123476
F0.006257221765565447
F-0.00032044647208268794
tp1011
abag0
(g11
g2
Ntp1012
Rp1013
(lp1014
(F0.29287358939192715
F-0.24876597949286422
F1.1686732873054932
F-0.02704090021977243
F0.13292121560510098
F0.17453861956326006
tp1015
a(F-0.0011536628500977417
F-0.0002378657653715461
F-0.004219415198035872
F-0.0038961273548953753
F0.005868094743241794
F5.4677342637325954e-05
tp1016
abag0
(g11
g2
Ntp1017
Rp1018
(lp1019
(F0.29169796422387834
F-0.24903940149714193
F1.164450824669498
F-0.03090025006501669
F0.1386272111976115
F0.17477657249080944
tp1020
a(F-0.0012078512902204594
F-0.0003258187190131171
F-0.004226173565404224
F-0.0038044435275652344
F0.00546589036193474
F0.0005081645933115609
tp1021
abag0
(g11
g2
Ntp1022
Rp1023
(lp1024
(F0.2904705915014059
F-0.24940337180454158
F1.160229146754328
F-0.03466536143028632
F0.14392713932026444
F0.175486943966755
tp1025
a(F-0.001255989647214539
F-0.0004201797128779312
F-0.004214260982672679
F-0.00370644966067736
F0.005054187059693494
F0.0010084261145188369
tp1026
abag0
(g11
g2
Ntp1027
Rp1028
(lp1029
(F0.28919806352292016
F-0.2498619743245826
F1.1560267311485886
F-0.03833330863452437
F0.14881295949083614
F0.17670242446052192
tp1030
a(F-0.0012967370736563766
F-0.0005151962344415611
F-0.004184158988763713
F-0.0036105219407354685
F0.00463659582506312
F0.0015206015161582168
tp1031
abag0
(g11
g2
Ntp1032
Rp1033
(lp1034
(F0.28788828949701706
F-0.25041350320856987
F1.1518615072443499
F-0.04190919129285017
F0.15328026367435815
F0.17842047166950412
tp1035
a(F-0.0013288121816924395
F-0.0006050245338546874
F-0.004136514012992607
F-0.0035241668651410183
F0.0042167801682990915
F0.002008914539931472
tp1036
abag0
(g11
g2
Ntp1037
Rp1038
(lp1039
(F0.2865504108698581
F-0.251050526734581
F1.147750724756258
F-0.04540499592808401
F0.1573283336841832
F0.18060335939170707
tp1040
a(F-0.0013510554277608251
F-0.0006841135160192955
F-0.004072054671156035
F-0.003453356441786186
F0.0037984681845794777
F0.002439060627289024
tp1041
abag0
(g11
g2
Ntp1042
Rp1043
(lp1044
(F0.285194655427239
F-0.2517603252203813
F1.1437109028025882
F-0.04883783108126183
F0.1609602050707298
F0.1831805627849523
tp1045
a(F-0.001362488617967842
F-0.0007475641599007145
F-0.003991514375579276
F-0.0034019582751030515
F0.003385450817744064
F0.002780467443198945
tp1046
abag0
(g11
g2
Ntp1047
Rp1048
(lp1049
(F0.28383213453208966
F-0.2525256688877518
F1.1397578518000417
F-0.052227648426309975
F0.16418272184719446
F0.18605329298880718
tp1050
a(F-0.001362367868606391
F-0.0007914407028904224
F-0.0038955652822121704
F-0.0033713041236896574
F0.0029815617456454505
F0.0030082799461971415
tp1051
abag0
(g11
g2
Ntp1052
Rp1053
(lp1054
(F0.28247459138499453
F-0.2533258792991557
F1.1359067548190283
F-0.05559460238553677
F0.16700656253337548
F0.18910085398737234
tp1055
a(F-0.0013502267000537697
F-0.0008130134439745024
F-0.0037847685623691825
F-0.003359931614487449
F0.0025906360678551346
F0.0031049421874960034
tp1056
abag0
(g11
g2
Ntp1057
Rp1058
(lp1059
(F0.2811341112920251
F-0.2541380998298705
F1.1321722906160698
F-0.05895623082946679
F0.16944621601279103
F0.19218837840728034
tp1060
a(F-0.0013259064997758125
F-0.000810917943491243
F-0.003659544606336786
F-0.003363522414043107
F0.002216447039054972
F0.0030612768316297394
tp1061
abag0
(g11
g2
Ntp1062
Rp1063
(lp1064
(F0.2798228073913735
F-0.2549386877910855
F1.1285687776078355
F-0.062324657447582636
F0.17151988582945837
F0.1951754140629455
tp1065
a(F-0.0012895723257785137
F-0.0007852212760544543
F-0.003520165144314695
F-0.0033750470440355525
F0.0018626222887043835
F0.002876998362441332
tp1066
abag0
(g11
g2
Ntp1067
Rp1068
(lp1069
(F0.27855249696882606
F-0.2557046340700126
F1.1251103167705279
F-0.0657040209197604
F0.17324930386119902
F0.19792478465764896
tp1070
a(F-0.0012417128885890978
F-0.0007373924139740237
F-0.0033667675259949435
F-0.0033851125596375885
F0.0015325431200716793
F0.0025606346345328295
tp1071
abag0
(g11
g2
Ntp1072
Rp1073
(lp1074
(F0.27733438427320506
F-0.25641491586460624
F1.1218109119103736
F-0.06908832662346187
F0.1746594386798896
F0.20031113877957962
tp1075
a(F-0.001183124492458261
F-0.0006701803378011905
F-0.003199389659526076
F-0.0033824954188275236
F0.0012292324125238929
F0.0021288712034497094
tp1076
abag0
(g11
g2
Ntp1077
Rp1078
(lp1079
(F0.27617876557486915
F-0.25705169418235335
F1.1186845479020142
F-0.07245989373339967
F0.1757780900589308
F0.20222863119092363
tp1080
a(F-0.0011148796750722121
F-0.000587409644940156
F-0.003018022497877059
F-0.003354828989341361
F0.000955238199107455
F0.0016053710391196842
tp1081
abag0
(g11
g2
Ntp1082
Rp1083
(lp1084
(F0.2750947711016927
F-0.25760127973265745
F1.1157452111578299
F-0.07578853556761464
F0.1766353685780053
F0.20359724677150146
tp1085
a(F-0.0010382821990441364
F-0.0004937088430550801
F-0.0028226755895414957
F-0.0032894041339367637
F0.0007125210241308867
F0.0010191562673090694
tp1086
abag0
(g11
g2
Ntp1087
Rp1088
(lp1089
(F0.2740901565054606
F-0.258054807768198
F1.1130068414923036
F-0.07903156608303129
F0.17726306755126678
F0.20436737532111923
tp1090
a(F-0.0009548108604076164
F-0.000394190816310112
F-0.0026134501767892597
F-0.003174032928421703
F0.0005023536081999518
F0.0004026662809888853
tp1091
abag0
(g11
g2
Ntp1092
Rp1093
(lp1094
(F0.2731711537797841
F-0.25840858309659237
F1.1104832103153657
F-0.08213467337618094
F0.1776939429377145
F0.20452236769537666
tp1095
a(F-0.0008660552387058968
F-0.0002941078642600633
F-0.002390613699383176
F-0.002997920373672538
F0.0003252411120691467
F-0.00021037383410710847
tp1096
abag0
(g11
g2
Ntp1097
Rp1098
(lp1099
(F0.2723423882374243
F-0.2586640794287146
F1.1081877263018565
F-0.08503364524128518
F0.17796092482304296
F0.20407894187573997
tp1100
a(F-0.0007736469795527368
F-0.0001985050588042237
F-0.00215466938669812
F-0.0027524873268520234
F0.00018086939639249598
F-0.0007871302885978229
tp1101
abag0
(g11
g2
Ntp1102
Rp1103
(lp1104
(F0.27160686446469995
F-0.25882760086049966
F1.1061331758863984
F-0.087656875888821
F0.1780962908528604
F0.2030854520620065
tp1105
a(F-0.0006791904457754248
F-0.00011189537632764911
F-0.0019064149065402538
F-0.002432089929645508
F6.808717241140141e-05
F-0.0012977382104921158
tp1106
abag0
(g11
g2
Ntp1107
Rp1108
(lp1109
(F0.2709660203300726
F-0.25890963598487987
F1.1043314116727105
F-0.08992853047751584
F0.17813083707917204
F0.20161817495951745
tp1110
a(F-0.0005841965836998477
F-3.797818426838461e-05
F-0.0016469847624837862
F-0.0020345864427056683
F-1.5074074337196004e-05
F-0.0017171442914893367
tp1111
abag0
(g11
g2
Ntp1112
Rp1113
(lp1114
(F0.2704198443673521
F-0.25892395537124213
F1.102793006706731
F-0.09177219860155822
F0.17809308459964462
F0.19977589573969498
tp1115
a(F-0.0004900236280156531
F2.05806544814474e-05
F-0.0013778722406644478
F-0.0015617112619360004
F-7.134089257233762e-05
F-0.002026596940057478
tp1116
abag0
(g11
g2
Ntp1117
Rp1118
(lp1119
(F0.2699670484083989
F-0.25888651959331827
F1.1015268961901754
F-0.09311483231374405
F0.17800856081523464
F0.19767318331814573
tp1120
a(F-0.00039782782789764146
F6.229330252360005e-05
F-0.0011009281226636235
F-0.001019227438941792
F-0.00010410050668182862
F-0.0022146920616987103
tp1121
abag0
(g11
g2
Ntp1122
Rp1123
(lp1124
(F0.2696052844114628
F-0.2588142765730236
F1.100540030339094
F-0.09389074103996649
F0.17789919197285237
F0.19543282381454974
tp1125
a(F-0.00030852674812621586
F8.691071022031329e-05
F-0.0008183350035604635
F-0.000416842525458256
F-0.0001172690103848107
F-0.0022779139301129297
tp1126
abag0
(g11
g2
Ntp1127
Rp1128
(lp1129
(F0.2693313921910166
F-0.25872393302427854
F1.0998370625597162
F-0.09404540645572688
F0.17778283894886746
F0.19317792751685806
tp1130
a(F-0.00022277692281798367
F9.539709543749282e-05
F-0.000532557769848214
F0.00023211284661482745
F-0.00011513128501603704
F-0.002220645461203854
tp1131
abag0
(g11
g2
Ntp1132
Rp1133
(lp1134
(F0.2691416633302307
F-0.25863078490410063
F1.0994200958764606
F-0.09353888577075037
F0.17767300120513646
F0.19102423583326716
tp1135
a(F-0.0001409667657797727
F8.982155799531177e-05
F-0.0002462724813000764
F0.0009112294794297573
F-0.00010216092160894463
F-0.002054658155900676
tp1136
abag0
(g11
g2
Ntp1137
Rp1138
(lp1139
(F0.269032106023248
F-0.2585476860915176
F1.0992885076779682
F-0.09234859169071001
F0.17757870492205607
F0.18907313045683363
tp1140
a(F-6.322472565731911e-05
F7.317586179741912e-05
F3.7722552968939866e-05
F0.001601759061017872
F-8.283002819824314e-05
F-0.0017981266033103066
tp1141
abag0
(g11
g2
Ntp1142
Rp1143
(lp1144
(F0.26899869597031456
F-0.2584842234963374
F1.0994388685326846
F-0.09047127046411617
F0.1775045810379433
F0.1874057895494897
tp1145
a(F1.0558226901313691e-05
F4.913232971439035e-05
F0.00031660841765908143
F0.0022835080727991054
F-6.141977663766878e-05
F-0.0014742434276671802
tp1146
abag0
(g11
g2
Ntp1147
Rp1148
(lp1149
(F0.2690375996973277
F-0.25844615128455806
F1.099864965351645
F-0.0879240439000334
F0.1774511279633567
F0.1860788496258754
tp1150
a(F8.069352350852477e-05
F2.1759679716288513e-05
F0.0005876539095403229
F0.002935835789406211
F-4.184280474937361e-05
F-0.0011095358980440404
tp1151
abag0
(g11
g2
Ntp1152
Rp1153
(lp1154
(F0.26914535870189893
F-0.25843511802515073
F1.1005579329080295
F-0.0847444343613914
F0.17741514281750187
F0.18512182328980342
tp1155
a(F0.0001476497873584987
F-4.782764934884437e-06
F0.000848323933368775
F0.0035386991960715615
F-2.7488106869252104e-05
F-0.0007320034898838392
tp1156
abag0
(g11
g2
Ntp1157
Rp1158
(lp1159
(F0.2693190255032114
F-0.25844869965785117
F1.1015064910801058
F-0.08098935025512251
F0.17739029488828373
F0.18453639975497815
tp1160
a(F0.00021200048910119366
F-2.655089317952314e-05
F0.0010963812665135127
F0.0040736843377973545
F-2.1097837767584446e-05
F-0.00036920539884520957
tp1161
abag0
(g11
g2
Ntp1162
Rp1163
(lp1164
(F0.2695562458178958
F-0.25848072971645536
F1.1026972786112437
F-0.07673306986964226
F0.1773678063449856
F0.18429762573295697
tp1165
a(F0.0002743678252745633
F-4.010038599655697e-05
F0.0013299753210005746
F0.004524964011620653
F-2.468359144740328e-05
F-4.6427848094575146e-05
tp1166
abag0
(g11
g2
Ntp1167
Rp1168
(lp1169
(F0.2698552844980667
F-0.25852189769779427
F1.1041152681175865
F-0.07206431985481696
F0.1773371986413496
F0.1843568376285381
tp1170
a(F0.0003353663180686858
F-4.273058098147594e-05
F0.001547712295409736
F0.004880125791555975
F-3.948731393168284e-05
F0.00021494690567450068
tp1171
abag0
(g11
g2
Ntp1172
Rp1173
(lp1174
(F0.2702149963368468
F-0.2585605682405418
F1.1057442419258885
F-0.06708259762263287
F0.1772870590132043
F0.18464610054614145
tp1175
a(F0.00039554956140844033
F-3.2671244475264115e-05
F0.0017487022470631605
F0.00513082187659647
F-6.598922310476098e-05
F0.00039876398978802
tp1176
abag0
(g11
g2
Ntp1177
Rp1178
(lp1179
(F0.27063474615816197
F-0.25858375909016296
F1.1075673044342618
F-0.061893931236503365
F0.17720578030825632
F0.18508381297967713
tp1180
a(F0.00045536325683956554
F-9.200057276409676e-06
F0.0019325800504508379
F0.005273202702908655
F-0.0001039621225028498
F0.0004950287785551503
tp1181
abag0
(g11
g2
Ntp1182
Rp1183
(lp1184
(F0.2711142855623615
F-0.25857820563798994
F1.1095674043156631
F-0.05660630326812103
F0.17708222920584907
F0.1855810644328968
tp1185
a(F0.0005151072151778313
F2.7316414725360642e-05
F0.002099498844468808
F0.005308109006913687
F-0.0001525685089157594
F0.0005003943310432484
tp1186
abag0
(g11
g2
Ntp1187
Rp1188
(lp1189
(F0.2716535961245618
F-0.25853143477424695
F1.111727839184886
F-0.05132498465927508
F0.17690630261090606
F0.18604829100188355
tp1190
a(F0.0005749083792682765
F7.546009648144905e-05
F0.002250096299468044
F0.005241011271314572
F-0.00021049408707466265
F0.0004181798596016569
tp1191
abag0
(g11
g2
Ntp1192
Rp1193
(lp1194
(F0.27225271060237616
F-0.2584327711670875
F1.114032716369972
F-0.04614802968924784
F0.17666933936190227
F0.1864017634866172
tp1195
a(F0.0006347061913853618
F0.0001328735039487201
F0.0023854357404929846
F0.005081700347743549
F-0.00027610890802494116
F0.0002579290559929846
tp1196
abag0
(g11
g2
Ntp1197
Rp1198
(lp1199
(F0.2729115247120481
F-0.25827420477775787
F1.1164673460998096
F-0.0411621734700041
F0.17636436392112748
F0.18656946403564803
tp1200
a(F0.0006942508337942536
F0.0001964378100315578
F0.002506925732861612
F0.004843747611891311
F-0.00034764550552514003
F3.454830678723407e-05
tp1201
abag0
(g11
g2
Ntp1202
Rp1203
(lp1204
(F0.27362961223436655
F-0.25805105898749314
F1.1190185475640706
F-0.03643934963042393
F0.1759861498105014
F0.18649595865344698
tp1205
a(F0.0007531140637592465
F0.0002625036474272695
F0.0026162230676355478
F0.0045437663798935215
F-0.0004233822450822813
F-0.00023290722814930647
tp1206
abag0
(g11
g2
Ntp1207
Rp1208
(lp1209
(F0.2744060556223325
F-0.2577624133584302
F1.121674853646388
F-0.03203400952328112
F0.17553110250175724
F0.18614595010656235
tp1210
a(F0.0008107115954697744
F0.0003271579130532284
F0.002715125091382627
F0.004200517690091132
F-0.000501819705783295
F-0.0005227088632499032
tp1211
abag0
(g11
g2
Ntp1212
Rp1213
(lp1214
(F0.27523930295883847
F-0.25741125272215964
F1.1244266063263324
F-0.02798137766573073
F0.17499697348785656
F0.1855062931535908
tp1215
a(F0.0008663352980652589
F0.0003865075251035715
F0.0028054579430029122
F0.0038339122552492576
F-0.0005818383174474976
F-0.0008120838862781131
tp1216
abag0
(g11
g2
Ntp1217
Rp1218
(lp1219
(F0.2761270601565665
F-0.25700433373419473
F1.1272659413866386
F-0.024296724084047632
F0.17438242856506775
F0.18458636461754543
tp1220
a(F0.0009191929218340129
F0.0004369601076429555
F0.0028889674526235624
F0.00346396591267404
F-0.0006628266527722369
F-0.0010788835432955222
tp1221
abag0
(g11
g2
Ntp1222
Rp1223
(lp1224
(F0.277066224842937
F-0.25655177989213984
F1.1301866677193833
F-0.020975676077121815
F0.17368650319741905
F0.183416796853623
tp1225
a(F0.0009684526654992491
F0.0004754819906547853
F0.0029672192145812192
F0.003109767941383105
F-0.0007447716517884561
F-0.001303173097330149
tp1226
abag0
(g11
g2
Ntp1227
Rp1228
(lp1229
(F0.2780528655967061
F-0.25606643491815767
F1.1331840527712076
F-0.01799553315529538
F0.17290798556583337
F0.18204669662892606
tp1230
a(F0.0010132896773254502
F0.0004998156718539257
F0.0030415136881041622
F0.0027885200932564664
F-0.0008283045124529558
F-0.0014686348643954074
tp1231
abag0
(g11
g2
Ntp1232
Rp1233
(lp1234
(F0.2790822472824265
F-0.2555630210615664
F1.136254531106769
F-0.015317493059983587
F0.1720447730092514
F0.18053957461091202
tp1235
a(F0.001052931550795062
F0.0005086418552506046
F0.003112821152559504
F0.002514699236798759
F-0.0009146988557468009
F-0.001563689788683792
tp1236
abag0
(g11
g2
Ntp1237
Rp1238
(lp1239
(F0.2801489003514862
F-0.2550571621620519
F1.1393953573617113
F-0.012889647111017186
F0.1710932497028489
F0.17896829666367509
tp1240
a(F0.0010867000288868381
F0.0005016751442372561
F0.0031817400199790602
F0.0022993884853047546
F-0.0010058208770248184
F-0.0015822640100118007
tp1241
abag0
(g11
g2
Ntp1242
Rp1243
(lp1244
(F0.28124672932318595
F-0.2545643403476706
F1.1426042277404114
F-0.010650562526319183
F0.17004773244296065
F0.1774094313546599
tp1245
a(F0.0011140464549184788
F0.0004796871422497633
F0.003248480475834606
F0.002149811108391059
F-0.0011040343227761635
F-0.001524152485122881
tp1246
abag0
(g11
g2
Ntp1247
Rp1248
(lp1249
(F0.28236915338683394
F-0.254098859444213
F1.1458788955234376
F-0.008533240083096668
F0.1689000273789598
F0.17593740449442127
tp1250
a(F0.0011345789774020098
F0.0004444557746789687
F0.0033128737822032813
F0.0020690890886793144
F-0.0012120660768604398
F-0.0013949602364434668
tp1251
abag0
(g11
g2
Ntp1252
Rp1253
(lp1254
(F0.2835092703080604
F-0.25367288729961424
F1.149216805723645
F-0.006469219088074035
F0.1676391337101707
F0.17461887906693854
tp1255
a(F0.0011480800976724319
F0.00039864474175430053
F0.003374405943778116
F0.0020562346698057344
F-0.0013328407083227447
F-0.0012056312326408128
tp1256
abag0
(g11
g2
Ntp1257
Rp1258
(lp1259
(F0.284660033675149
F-0.25329564338441807
F1.1526147721144364
F-0.0043925988356907485
F0.1662511211961156
F0.17350775745467906
tp1260
a(F0.0011545138021885155
F0.0003456217949414695
F0.0034322729133297127
F0.0021063694873771754
F-0.001469294355014448
F-0.0009716032361578965
tp1261
abag0
(g11
g2
Ntp1262
Rp1263
(lp1264
(F0.2858144330383851
F-0.25297278766084896
F1.1560687164983716
F-0.002243756457241862
F0.1647191974104526
F0.1726411542951149
tp1265
a(F0.0011540222028082656
F0.0002892286753079768
F0.0034854531972914734
F0.002211152720781193
F-0.0016241796610849053
F-0.0007116522683276827
tp1266
abag0
(g11
g2
Ntp1267
Rp1268
(lp1269
(F0.28696566668760937
F-0.25270605256771594
F1.1595734855305286
F2.7435618516860963e-05
F0.16302396871626815
F0.17203661631980108
tp1270
a(F0.001146912273766689
F0.0002335187843250384
F0.003532792697172189
F0.002359387938549588
F-0.0017998740651372007
F-0.00044651095873930925
tp1271
abag0
(g11
g2
Ntp1272
Rp1273
(lp1274
(F0.2881072976473701
F-0.2524931430457716
F1.1631227549751133
F0.002459055128070438
F0.16114388673246205
F0.17169077536522342
tp1275
a(F0.0011336338814593827
F0.00018248076371682294
F0.0035730959511876
F0.0025377686205618156
F-0.001998203513930209
F-0.00019735962063617635
tp1276
abag0
(g11
g2
Ntp1277
Rp1278
(lp1279
(F0.2892333848721755
F-0.25232791100807556
F1.166709025324993
F0.005075358018552828
F0.1590558603912101
F0.17157951881676167
tp1280
a(F0.0011147508152142315
F0.0001397670079823261
F0.003605217661276182
F0.0027317152725927283
F-0.0022202926719852687
F1.570348484667901e-05
tp1281
abag0
(g11
g2
Ntp1282
Rp1283
(lp1284
(F0.29033858348887803
F-0.25220079182028715
F1.1703237066490155
F0.007885860001738142
F0.15673600330921175
F0.17165965518104148
tp1285
a(F0.0010909069138673247
F0.00010844567478720487
F0.0036281485154607165
F0.0029262529755140322
F-0.0024664509805119666
F0.00017510599450804642
tp1286
abag0
(g11
g2
Ntp1287
Rp1288
(lp1289
(F0.29141821012512037
F-0.2520994724848457
F1.173957284749195
F0.010885291018387285
F0.15416047777563557
F0.17187194862927174
tp1290
a(F0.0010627896228652992
F9.079303741655107e-05
F0.003641089829348822
F0.003106877312981229
F-0.0027361016071421485
F0.00026705976407249906
tp1291
abag0
(g11
g2
Ntp1292
Rp1293
(lp1294
(F0.292468271730747
F-0.2520097455315409
F1.1775995555817265
F0.014054390866841297
F0.1513063907291197
F0.17214530228829494
tp1295
a(F0.0010310933985281366
F8.81401681100399e-05
F0.0036435123928949017
F0.0032603588775782814
F-0.0030277575776231167
F0.000282547827129071
tp1296
abag0
(g11
g2
Ntp1297
Rp1298
(lp1299
(F0.2934854586848197
F-0.25191649015702683
F1.1812399107454439
F0.017361466546057906
F0.14815269401856315
F0.17240179209580436
tp1300
a(F0.0009964852992497544
F0.000100784155366257
F0.0036351960563500672
F0.003375441751198115
F-0.003339046376827114
F0.00021797366157649204
tp1301
abag0
(g11
g2
Ntp1302
Rp1303
(lp1304
(F0.2944671052294338
F-0.25180471375066726
F1.1848676539214862
F0.02076459038513761
F0.14468104119012842
F0.17256219632663547
tp1305
a(F0.0009595748772923241
F0.00012796960738844167
F0.003616247941623664
F0.0034433990986731606
F-0.0036667812499033463
F7.543025245816664e-05
tp1306
abag0
(g11
g2
Ntp1307
Rp1308
(lp1309
(F0.2954111222412718
F-0.2516605831345532
F1.188472326625415
F0.0242142851077203
F0.14087655598663365
F0.17255163407568844
tp1310
a(F0.000920890128351727
F0.0001679413855384882
F0.0035870986287963535
F0.0034584187632325306
F-0.00400707452796446
F-0.00013742709935947103
tp1311
abag0
(g11
g2
Ntp1312
Rp1313
(lp1314
(F0.29631590892324805
F-0.25147237585603516
F1.1920440215790076
F0.027656519353143224
F0.13672847345797484
F0.17230492095206934
tp1315
a(F0.000880860796084511
F0.0002180646750942929
F0.003548477143104839
F0.0034178028555115554
F-0.00435548573758302
F-0.0004078930007488987
tp1316
abag0
(g11
g2
Ntp1317
Rp1318
(lp1319
(F0.2971802510814416
F-0.25123128759739244
F1.1955736633957268
F0.031035825909312472
F0.13223062265366176
F0.17177127205813966
tp1320
a(F0.0008398097981384763
F0.0002750039637385037
F0.003501366957039906
F0.0033219770637060064
F-0.004707195196309313
F-0.0007190717774580793
tp1321
abag0
(g11
g2
Ntp1322
Rp1323
(lp1324
(F0.29800321419089437
F-0.2509320417864885
F1.1990532389784803
F0.03429835533772564
F0.1273817297399162
F0.17091802923229216
tp1325
a(F0.0007979529754815974
F0.00033494856568715235
F0.003446946434336467
F0.0031743170389246433
F-0.005057192378512839
F-0.0010510240226597573
tp1326
abag0
(g11
g2
Ntp1327
Rp1328
(lp1329
(F0.2987840394289489
F-0.25057326109461325
F1.2024759638421627
F0.03739468939017483
F0.12218553137978932
F0.16973315807956457
tp1330
a(F0.0007554068057843744
F0.0003938692621406695
F0.0033865181000305253
F0.00298081001066491
F-0.005400467643907286
F-0.0013821199996807527
tp1331
abag0
(g11
g2
Ntp1332
Rp1333
(lp1334
(F0.29952205028509055
F-0.2501575767469897
F1.2058363752179477
F0.040282260542765465
F0.11665069959447179
F0.16822634562570432
tp1335
a(F0.0007122032008409504
F0.00044778862685294056
F0.003321431764217381
F0.002749579116858153
F-0.005732195992065541
F-0.0016905065954327155
tp1336
abag0
(g11
g2
Ntp1337
Rp1338
(lp1339
(F0.300216576295344
F-0.24969146933121114
F1.209130347942411
F0.04292725441783444
F0.11079059033057151
F0.16642862555303217
tp1340
a(F0.0006683100604841129
F0.0004930467952963827
F0.003253006819517277
F0.002490305254772188
F-0.006047902324939901
F-0.0019555875594487082
tp1341
abag0
(g11
g2
Ntp1342
Rp1343
(lp1344
(F0.3008668989814321
F-0.24918485285950515
F1.2123550344259575
F0.045305908660407956
F0.10462283787038308
F0.1643905582901121
tp1345
a(F0.0006236559084800553
F0.0005265448617698891
F0.0031824589605834
F0.002213586177466765
F-0.0063435992001009585
F-0.002159416659506389
tp1346
abag0
(g11
g2
Ntp1347
Rp1348
(lp1349
(F0.3014722233088086
F-0.24865043100175427
F1.2155087350723741
F0.04740516248497762
F0.09816882540311993
F0.16217909090155844
tp1350
a(F0.0005781567095171033
F0.0005459497116443602
F0.003110836150004469
F0.0019302748417717962
F-0.006615890128538749
F-0.0022879100695809874
tp1351
abag0
(g11
g2
Ntp1352
Rp1353
(lp1354
(F0.3020316760386212
F-0.24810286950891428
F1.21859071004654
F0.04922265294863771
F0.0914530680146133
F0.15987331018294584
tp1355
a(F0.0005317428722589437
F0.0005498467962017162
F0.0030389679139016385
F0.0016508385968995725
F-0.006862033963057371
F-0.0023317972527699678
tp1356
abag0
(g11
g2
Ntp1357
Rp1358
(lp1359
(F0.3025443303699757
F-0.24755784089057578
F1.2216009469659534
F0.05076609438459731
F0.08450254770141288
F0.1575593757271851
tp1360
a(F0.0004843844841967371
F0.0005378309441213463
F0.0029674310484064585
F0.0013847777988967537
F-0.00707996865986314
F-0.0022872478680161824
tp1361
abag0
(g11
g2
Ntp1362
Rp1363
(lp1364
(F0.30300925438295107
F-0.24703100561014968
F1.2245399016920393
F0.05205211386828905
F0.07734604060559529
F0.15532497319468436
tp1365
a(F0.0004361129934875363
F0.0005105295275930055
F0.002896533627707613
F0.0011401371167803986
F-0.007268295485251514
F-0.002156134524560649
tp1366
abag0
(g11
g2
Ntp1367
Rp1368
(lp1369
(F0.3034255791225138
F-0.2465369978961749
F1.2274082307648408
F0.05310464593703549
F0.07001347452427964
F0.1532536581859019
tp1370
a(F0.00038703783662553416
F0.00046955687268531246
F0.0028263179096431066
F0.0009231355719340652
F-0.0074262273880202016
F-0.0019459159855195348
tp1371
abag0
(g11
g2
Ntp1372
Rp1373
(lp1374
(F0.3037925808142746
F-0.24608848351619286
F1.2302065340916926
F0.05395301234844545
F0.06253535008686
F0.15141946618406676
tp1375
a(F0.00033735688706741104
F0.0004174034126769397
F0.00275658142569856
F0.0007379327427787051
F-0.007553507584723318
F-0.0016691509864584944
tp1376
abag0
(g11
g2
Ntp1377
Rp1378
(lp1379
(F0.3041097707566061
F-0.24569535160830294
F1.2329351252885556
F0.05462982629645943
F0.054942252199198155
F0.14988214391913907
tp1380
a(F0.0002873600417190248
F0.00035726741965766445
F0.0026869143080306243
F0.0005865391644335631
F-0.007650306251620278
F-0.0013426774582615043
tp1381
abag0
(g11
g2
Ntp1382
Rp1383
(lp1384
(F0.30437698594308493
F-0.24536409330405842
F1.2355938446901031
F0.055168864667263826
F0.04726446995681215
F0.1486833138069532
tp1385
a(F0.0002374257387835844
F0.00029284092515771644
F0.002616749829483004
F0.0004688693836621756
F-0.007717104461535197
F-0.0009865139819297624
tp1386
abag0
(g11
g2
Ntp1387
Rp1388
(lp1389
(F0.3045944734563541
F-0.2450974070662741
F1.2381819266775835
F0.05560304669262606
F0.03953173386296628
F0.14784381901128588
tp1390
a(F0.00018801067966898473
F0.00022806440663138307
F0.002545424284150177
F0.00038292701056123095
F-0.007754575066374922
F-0.0006225583058164869
tp1391
abag0
(g11
g2
Ntp1392
Rp1393
(lp1394
(F0.3047629621291568
F-0.24489405529342378
F1.240697928871995
F0.05596264342666757
F0.03177306954692283
F0.1473624166664326
tp1395
a(F0.00013963347790068827
F0.00016686678178899923
F0.002472241769844747
F0.00032510301057770287
F-0.007763470075751396
F-0.0002731705616280091
tp1396
abag0
(g11
g2
Ntp1397
Rp1398
(lp1399
(F0.30488371584987234
F-0.2447489798590735
F1.243139726200098
F0.05627382105180577
F0.02401675796751801
F0.1472158964037259
tp1400
a(F9.285335043225335e-05
F0.00011290809454629477
F0.002396539183726835
F0.0002905618912578085
F-0.007744523238358336
F4.02643739775597e-05
tp1401
abag0
(g11
g2
Ntp1402
Rp1403
(lp1404
(F0.3049585641307424
F-0.2446536670022495
F1.245504568183197
F0.056557593771283395
F0.01629038397369789
F0.14736060669894152
tp1405
a(F4.824527705494214e-05
F6.93419488053014e-05
F0.0023177468201591913
F0.0002736857336247223
F-0.007698375063560004
F0.00029870049607865086
tp1406
abag0
(g11
g2
Ntp1407
Rp1408
(lp1409
(F0.30498990706756934
F-0.2445967355188833
F1.2477891933469714
F0.05682923095241089
F0.008620948656917425
F0.14773527906127534
tp1410
a(F6.3732634472091575e-06
F3.861328233131469e-05
F0.0022354403547993036
F0.00026854344138563393
F-0.007625525537946553
F0.0004866312950882336
tp1411
abag0
(g11
g2
Ntp1412
Rp1413
(lp1414
(F0.30498069349494517
F-0.24456470761800767
F1.249989990709086
F0.057098130414052026
F0.0010350166242345442
F0.14826495586240832
tp1415
a(F-3.2236558511766865e-05
F2.2304581443262243e-05
F0.002149380678771451
F0.00026935223059710607
F-0.00752631744308258
F0.0005930501830564429
tp1416
abag0
(g11
g2
Ntp1417
Rp1418
(lp1419
(F0.304934372867801
F-0.2445429100555067
F1.2521031951340593
F0.05736813751053835
F-0.00644113255855299
F0.14886575717186876
tp1420
a(F-6.712127689274434e-05
F2.104029467806815e-05
F0.002059538960230488
F0.0002709002091761916
F-0.007400950639357007
F0.0006121102892257844
tp1421
abag0
(g11
g2
Ntp1422
Rp1423
(lp1424
(F0.304854823064393
F-0.2445164450003337
F1.2541251011586787
F0.057638260053360646
F-0.013781378839712052
F0.1494501698481396
tp1425
a(F-9.790340487623805e-05
F3.4455241862722424e-05
F0.001966105391264575
F0.0002689027111246384
F-0.007249525132922711
F0.0005434437822833602
tp1426
abag0
(g11
g2
Ntp1427
Rp1428
(lp1429
(F0.30474625780081754
F-0.2444711660329072
F1.2560522788222295
F0.057903703994323125
F-0.020959689016146425
F0.14993251157857304
tp1430
a(F-0.00012430858658327967
F6.122850510524725e-05
F0.0018694812489408604
F0.0002602705422712453
F-0.007072108374449302
F0.0003921238634613651
tp1431
abag0
(g11
g2
Ntp1432
Rp1433
(lp1434
(F0.30461311857950557
F-0.24439459495329566
F1.2578817751410476
F0.058157135679370475
F-0.02795011850958968
F0.15023421532814274
tp1435
a(F-0.00014617775721809256
F9.917992163403391e-05
F0.0017702550783536292
F0.0002432750505616012
F-0.00686882022304536
F0.00016827639070816471
tp1436
abag0
(g11
g2
Ntp1437
Rp1438
(lp1439
(F0.30445995699007367
F-0.24427671962632985
F1.259611286121663
F0.05839006444040934
F-0.034726901985233274
F0.150288595929636
tp1440
a(F-0.00016347308360150357
F0.00014542216751602425
F0.001669164911359561
F0.00021760247195002808
F-0.006639927494298761
F-0.00011362886193903638
tp1441
abag0
(g11
g2
Ntp1442
Rp1443
(lp1444
(F0.3042913136903594
F-0.24411062156570423
F1.2612392865074562
F0.058594234895096714
F-0.041264638767938865
F0.15004479893614334
tp1445
a(F-0.00017627741830077915
F0.00019655779961363245
F0.0015670493919993332
F0.00018429780334265462
F-0.006385939110395935
F-0.0004357565625318294
tp1446
abag0
(g11
g2
Ntp1447
Rp1448
(lp1449
(F0.3041116004947971
F-0.24389289375456724
F1.2627651076258923
F0.0587629216234044
F-0.04753856994019636
F0.14947068951251724
tp1450
a(F-0.00018478741502131192
F0.00024890774731610476
F0.0014647914243417625
F0.00014560599528914406
F-0.00610769265162198
F-0.0007780859614588353
tp1451
abag0
(g11
g2
Ntp1452
Rp1453
(lp1454
(F0.30392499169012677
F-0.24362382349571446
F1.2641889575147522
F0.05889202942780802
F-0.05352493500030657
F0.1485545119698537
tp1455
a(F-0.00018930084761252183
F0.00029875579983106916
F0.0013632584420262583
F0.00010472504968518058
F-0.005806423592636661
F-0.0011197126359428925
tp1456
abag0
(g11
g2
Ntp1457
Rp1458
(lp1459
(F0.3037353300146764
F-0.24330733090163958
F1.2655118816830369
F0.058980919240107954
F-0.05920138770971152
F0.14730523349340108
tp1460
a(F-0.00019019902487116207
F0.00034259273920094434
F0.001263243591076553
F6.549122511432333e-05
F-0.005483809664129284
F-0.0014401848227451213
tp1461
abag0
(g11
g2
Ntp1462
Rp1463
(lp1464
(F0.3035460517306527
F-0.24295066990355926
F1.2667356671101935
F0.05903290160055206
F-0.06454744390668508
F0.14575157302195577
tp1465
a(F-0.000187925476830437
F0.00037734397224409175
F0.0011654120089637987
F3.2020657229920594e-05
F-0.0051419845329752105
F-0.0017207863680196167
tp1466
abag0
(g11
g2
Ntp1467
Rp1468
(lp1469
(F0.3033601339620367
F-0.24256391429067564
F1.2678626961095962
F0.05905536489898277
F-0.06954492915629826
F0.14393980223038122
tp1470
a(F-0.00018296228885807133
F0.0004005657908328722
F0.0010702559845627846
F8.334065043614824e-06
F-0.004783517221120205
F-0.0019456832311295904
tp1471
abag0
(g11
g2
Ntp1472
Rp1473
(lp1474
(F0.30318006605098974
F-0.24215926525231835
F1.2688957602015656
F0.05905953244807414
F-0.07417839155549391
F0.14193048444996287
tp1475
a(F-0.00017580556698117112
F0.0004105976423323086
F0.0009780621265077026
F-2.0082719454789667e-06
F-0.004411356229680697
F-0.0021028608371146283
tp1476
abag0
(g11
g2
Ntp1477
Rp1478
(lp1479
(F0.3030078451984036
F-0.24175022827508855
F1.2698378469183318
F0.05905986911240708
F-0.07843544506390651
F0.13979438399557373
tp1480
a(F-0.00016694152715371203
F0.00040666085943151894
F0.0008888927998773778
F3.7646000768223595e-06
F-0.004028740020706482
F-0.00218479460814352
tp1481
abag0
(g11
g2
Ntp1482
Rp1483
(lp1484
(F0.3028449951962664
F-0.24135071531611504
F1.2706919143129796
F0.059073182865884685
F-0.08230701144821065
F0.13760782851030215
tp1485
a(F-0.00015682461493941077
F0.00038889796707670477
F0.0008025830753965777
F2.7364409499798665e-05
F-0.0036390781435696484
F-0.0021888146429539287
tp1486
abag0
(g11
g2
Ntp1487
Rp1488
(lp1489
(F0.3026926057229986
F-0.24097413243264165
F1.2714606687473382
F0.0591174876951421
F-0.08578743418222136
F0.13544783750966533
tp1490
a(F-0.00014585888873335306
F0.0003583507020115699
F0.0007187533431832165
F6.925112626209916e-05
F-0.0032458096864300514
F-0.0021171464541758275
tp1491
abag0
(g11
g2
Ntp1492
Rp1493
(lp1494
(F0.30255138853935054
F-0.24063251325808843
F1.2721463612444084
F0.05921071038905885
F-0.0888744451249919
F0.13338733958679994
tp1495
a(F-0.00013438365307152068
F0.0003168789752590413
F0.0006368366507110067
F0.0001285305854570719
F-0.002852247710819103
F-0.0019766314803168943
tp1496
abag0
(g11
g2
Ntp1497
Rp1498
(lp1499
(F0.30242174605768896
F-0.2403357549092975
F1.2727506163394933
F0.059369333993637564
F-0.09156897402907033
F0.13149078845636236
tp1500
a(F-0.0001226640270343406
F0.00026702690537002614
F0.0005561188074882415
F0.00020294874311195445
F-0.0024614197411753154
F-0.001778152288826842
tp1501
abag0
(g11
g2
Ntp1502
Rp1503
(lp1504
(F0.3023038472079077
F-0.24009100539051312
F1.2732743050539783
F0.05960707451854122
F-0.09387480130239666
F0.1298104553455922
tp1505
a(F-0.000110886797537694
F0.00021184549237501443
F0.0004757884263985271
F0.0002889824349311931
F-0.0020759151206591535
F-0.001535806568429692
tp1506
abag0
(g11
g2
Ntp1507
Rp1508
(lp1509
(F0.30219770531321094
F-0.23990224087293419
F1.273717470515053
F0.05993368474427549
F-0.0957980652593815
F0.1283836247108404
tp1510
a(F-9.916156126935743e-05
F0.00015468426447936073
F0.000394993402466552
F0.0003820200546272575
F-0.0016977500446248644
F-0.0012658899187876773
tp1511
abag0
(g11
g2
Ntp1512
Rp1513
(lp1514
(F0.30210325282023526
F-0.23977005812580052
F1.274079311074826
F0.06035397001737231
F-0.0973466456039869
F0.1272308555492215
tp1515
a(F-8.75268250099837e-05
F9.896613511280484e-05
F0.00031289990818241285
F0.00047661968412523575
F-0.0013282603288260685
F-0.0009857590682359086
tp1516
abag0
(g11
g2
Ntp1517
Rp1518
(lp1519
(F0.3020204081797603
F-0.23969169275986474
F1.2743582218016154
F0.06086708645464506
F-0.09852945435061064
F0.12635539626298667
tp1520
a(F-7.596043339748837e-05
F4.796063982398191e-05
F0.0002287498371712445
F0.0005668272641317083
F-0.0009680304976008719
F-0.0007126537741348305
tp1521
abag0
(g11
g2
Ntp1522
Rp1523
(lp1524
(F0.30194913090582154
F-0.23966125881096015
F1.2745518912020932
F0.0614661730681932
F-0.09935567312464146
F0.12574376226520667
tp1525
a(F-6.439344429148334e-05
F4.570630099516138e-06
F0.000141912762557552
F0.0006465336896072806
F-0.000616865674442964
F-0.0004625569208270491
tp1526
abag0
(g11
g2
Ntp1527
Rp1528
(lp1529
(F0.3018894617947677
F-0.23967019055705077
F1.2746574462625846
F0.062138347295264025
F-0.0998339812155113
F0.12536740765225055
tp1530
a(F-5.272638919352197e-05
F-2.8853596931193277e-05
F5.1928881040880715e-05
F0.0007098474609272962
F-0.00027381015432012025
F-0.0002491682294399675
tp1531
abag0
(g11
g2
Ntp1532
Rp1533
(lp1534
(F0.3018415463916241
F-0.23970785429777128
F1.2746716356290493
F0.0628650697661468
F-0.09997182144801509
F0.12518535052603189
tp1535
a(F-4.08467492542144e-05
F-5.066077203539938e-05
F-4.1459941762452436e-05
F0.0007514588281453073
F6.27863995255232e-05
F-8.305789522762512e-05
tp1536
abag0
(g11
g2
Ntp1537
Rp1538
(lp1539
(F0.30180564097154516
F-0.2397622869919163
F1.2745910381992827
F0.06362286043177456
F-0.09977475063637993
F0.12514755064444516
tp1540
a(F-2.8646450491873948e-05
F-5.9996561485145995e-05
F-0.00013829307115819305
F0.0007669722384945608
F0.0003951572702679255
F2.89469334115055e-05
tp1541
abag0
(g11
g2
Ntp1542
Rp1543
(lp1544
(F0.3017821014796143
F-0.2398210108398767
F1.2744122827471438
F0.06438432592799057
F-0.09924591803026145
F0.1251987919213395
tp1545
a(F-1.6038233755407434e-05
F-5.6847108364047315e-05
F-0.00023838902263253878
F0.0007531862399513373
F0.0007259666667521329
F8.410665020069801e-05
tp1546
abag0
(g11
g2
Ntp1547
Rp1548
(lp1549
(F0.30177135696655166
F-0.2398718685976907
F1.2741322635439698
F0.06511943866931308
F-0.0983857088958707
F0.12528279373799353
tp1550
a(F-2.969879291571231e-06
F-4.202612025792041e-05
F-0.0003413584362650544
F0.000708303617643074
F0.0010581252736176067
F8.382735089258613e-05
tp1551
abag0
(g11
g2
Ntp1552
Rp1553
(lp1554
(F0.3017738700030357
F-0.23990382385914674
F1.273748337324004
F0.06579699281527782
F-0.09719158153834541
F0.12534626568106957
tp1555
a(F1.056454846765628e-05
F-1.7107220131628746e-05
F-0.0004466311090728144
F0.0006320591788885691
F0.0013945835807023437
F3.3435055961742294e-05
tp1556
abag0
(g11
g2
Ntp1557
Rp1558
(lp1559
(F0.3017900872958372
F-0.23990767372974256
F1.2732584883245184
F0.0663861518212083
F-0.09565811517889952
F0.12534263047653785
tp1560
a(F2.451703779914982e-05
F1.5693083915096596e-05
F-0.0005534951314665192
F0.0005257579326336377
F0.0017381148915722143
F-5.831241168196854e-05
tp1561
abag0
(g11
g2
Ntp1562
Rp1563
(lp1564
(F0.30182038422507024
F-0.23987662797818057
F1.272661450414692
F0.06685799731848685
F-0.09377727381181104
F0.1252351685094241
tp1565
a(F3.878188825834523e-05
F5.367322280507944e-05
F-0.0006611453587187886
F0.000392222070942088
F0.0020911008708183504
F-0.00017993691289581198
tp1566
abag0
(g11
g2
Ntp1567
Rp1568
(lp1569
(F0.3018650072516944
F-0.2398067183944381
F1.2719567783468486
F0.06718698974967413
F-0.09153887824351015
F0.12499938213560183
tp1570
a(F5.3195958239743814e-05
F9.383398511640385e-05
F-0.0007687378290769081
F0.00023565078444956106
F0.0024553326439651804
F-0.000318121427201857
tp1571
abag0
(g11
g2
Ntp1572
Rp1573
(lp1574
(F0.3019240181047365
F-0.23969701402115687
F1.2711448637067826
F0.0673522573297642
F-0.08893126577331194
F0.12462443567297231
tp1575
a(F6.75427040929143e-05
F0.00013308250558931005
F-0.0008754463576871965
F6.140217457921777e-05
F0.002831839790768525
F-0.0004586974730934295
tp1576
abag0
(g11
g2
Ntp1577
Rp1578
(lp1579
(F0.3019972433635363
F-0.23954963132442247
F1.2702268949600684
F0.06733864099411448
F-0.08594210522689048
F0.12411359335486538
tp1580
a(F8.15595740171392e-05
F0.00016843887369539652
F-0.000980517414051523
F-0.00012428895629802242
F0.0032207581048509944
F-0.0005876685419173506
tp1581
abag0
(g11
g2
Ntp1582
Rp1583
(lp1584
(F0.3020842325331749
F-0.23936954231031737
F1.2692047648249019
F0.06713743820730955
F-0.082559325059915
F0.12348364796311756
tp1585
a(F9.494812114038693e-05
F0.00019723143822601548
F-0.001083319536438235
F-0.00031464011274003653
F0.0036212448149409667
F-0.0006921984395750012
tp1586
abag0
(g11
g2
Ntp1587
Rp1588
(lp1589
(F0.30218422701641146
F-0.2391641971293657
F1.2680809317869504
F0.06674680679232674
F-0.07877210466687219
F0.12276340245767475
tp1590
a(F0.00010738605369542477
F0.00021726784704687965
F-0.0011833839373024124
F-0.0005026772125443394
F0.004031447207577627
F-0.0007614971695700272
tp1591
abag0
(g11
g2
Ntp1592
Rp1593
(lp1594
(F0.3022961415684107
F-0.2389429899355783
F1.2668582456648962
F0.0661718100839498
F-0.07457187436765798
F0.12199133094477134
tp1595
a(F0.00011854035382888972
F0.00022697068527811337
F-0.001280433579763252
F-0.0006815969939060821
F0.004448527428973724
F-0.0007875452703875105
tp1596
abag0
(g11
g2
Ntp1597
Rp1598
(lp1599
(F0.30241855894277875
F-0.23871660687325055
F1.2655397495295466
F0.06542410542677532
F-0.06995326812849743
F0.12121259949382228
tp1600
a(F0.0001280805737006359
F0.00022546912661126472
F-0.0013743988117876846
F-0.0008451151301186089
F0.004868742873589102
F-0.0007656097025076216
tp1601
abag0
(g11
g2
Ntp1602
Rp1603
(lp1604
(F0.3025497375619883
F-0.23849630239873088
F1.2641284718168564
F0.06452129804808023
F-0.06491497502574468
F0.12047566808224541
tp1605
a(F0.000135691457039152
F0.0002126411102354674
F-0.0014654185751968088
F-0.0009877809055236812
F0.005287578202626655
F-0.0006945195716019126
tp1606
abag0
(g11
g2
Ntp1607
Rp1608
(lp1609
(F0.3026876312323864
F-0.23829315424690728
F1.2626272230582833
F0.06348600045172387
F-0.05946044068852448
F0.11982871974726828
tp1610
a(F0.00014108413083424416
F0.0001891039841528336
F-0.001553827196196811
F-0.0011052418593939712
F0.005699921891926153
F-0.0005766870885363942
tp1611
abag0
(g11
g2
Ntp1612
Rp1613
(lp1614
(F0.3028299192269545
F-0.23811734798777737
F1.2610384112489934
F0.062344652676801705
F-0.0535983781568377
F0.11931617041696027
tp1615
a(F0.00014400525623428433
F0.00015615507894743566
F-0.0016401277445822254
F-0.0011944452612065836
F0.0061002774874011996
F-0.0004178770021343338
tp1616
abag0
(g11
g2
Ntp1617
Rp1618
(lp1619
(F0.3029740445208046
F-0.23797753928888585
F1.2593638885218212
F0.06112617024185581
F-0.04734305827229458
F0.11897550265643049
tp1620
a(F0.00014424370783580956
F0.00011566705504438898
F-0.0017249538530039999
F-0.0012537673895042186
F0.006482997622785521
F-0.00022674506370225328
tp1621
abag0
(g11
g2
Ntp1622
Rp1623
(lp1624
(F0.30311725761504277
F-0.23788033594061675
F1.2576048395935424
F0.05986049381447009
F-0.04071436222542064
F0.11883463968883304
tp1625
a(F0.00014163455221250965
F6.994587432056255e-05
F-0.0018090226544520407
F-0.0012830660641521205
F0.006842527466744068
F-1.4181712231625533e-05
tp1626
abag0
(g11
g2
Ntp1627
Rp1628
(lp1629
(F0.3032566632395166
F-0.23782993286499116
F1.2557617195581456
F0.05857711735715908
F-0.033737592444107005
F0.11891003465137376
tp1630
a(F0.00013606030452954573
F2.1561684385408377e-05
F-0.0018930820740144629
F-0.0012836564337441677
F0.0071736437051262494
F0.0002074899423004896
tp1631
abag0
(g11
g2
Ntp1632
Rp1633
(lp1634
(F0.3033892672843131
F-0.23782792234918496
F1.2538342452236597
F0.05730366974491294
F-0.026443051780514232
F0.1192055972072616
tp1635
a(F0.00012744964131952593
F-2.683538752574084e-05
F-0.0019778560620563584
F-0.00125821435998701
F0.007471675467029576
F0.00042540345876628194
tp1636
abag0
(g11
g2
Ntp1637
Rp1638
(lp1639
(F0.30351202155928675
F-0.23787328939474592
F1.2518214405604413
F0.05606461894430218
F-0.018865414081594905
F0.11971251918054547
tp1640
a(F0.00011577392399761661
F-7.270166176344834e-05
F-0.0020639914580928005
F-0.0012106156096739868
F0.0077326947524971245
F0.0006270622230179859
tp1641
abag0
(g11
g2
Ntp1642
Rp1643
(lp1644
(F0.30362186439283917
F-0.23796258920888627
F1.2497217332005899
F0.05488015834757957
F-0.011042920894363255
F0.12040999710617488
tp1645
a(F0.00010104202959803821
F-0.00011377569896271083
F-0.002152010022964787
F-0.0011457222456127685
F0.007953665842568678
F0.0008012122621872673
tp1646
abag0
(g11
g2
Ntp1647
Rp1648
(lp1649
(F0.3037157556174129
F-0.23809029136696672
F1.247533095549075
F0.053765322521150356
F-0.0030164485368337325
F0.12126678695446538
tp1650
a(F8.329408352207866e-05
F-0.0001482314915136751
F-0.002242268784086282
F-0.0010691299389184931
F0.00813254574650345
F0.0009386143471247502
tp1651
abag0
(g11
g2
Ntp1652
Rp1653
(lp1654
(F0.30379070510384415
F-0.2382492638924221
F1.2452532211666176
F0.05272936534566254
F0.0051715035255248815
F0.12224346911851054
tp1655
a(F6.259473821538894e-05
F-0.000174798781332574
F-0.002334931233620136
F-0.0009868913079677456
F0.008268330801618083
F0.0010326629372231632
tp1656
abag0
(g11
g2
Ntp1657
Rp1658
(lp1659
(F0.30384379464989897
F-0.2384313611873093
F1.242879724856913
F0.051775418255840686
F0.013477848527211775
F0.1232952539297028
tp1660
a(F3.902663976906138e-05
F-0.00019284260732985617
F-0.002429951145933264
F-0.0009052307923052594
F0.008361047892180354
F0.0010798109692394069
tp1661
abag0
(g11
g2
Ntp1662
Rp1663
(lp1664
(F0.30387219364970586
F-0.2386280730169102
F1.2404103534828934
F0.050900430998322206
F0.02185991785433071
F0.12437512267705168
tp1665
a(F1.2684673333021673e-05
F-0.00020239707484288828
F-0.0025270698933362178
F-0.0008302660267577322
F0.00841169218025111
F0.0010797736260604151
tp1666
abag0
(g11
g2
Ntp1667
Rp1668
(lp1669
(F0.3038731695233649
F-0.23883118803693504
F1.2378431940370935
F0.05009538292332516
F0.03027638470010922
F0.12543707862826403
tp1670
a(F-1.632851668941488e-05
F-0.0002041515394776816
F-0.002625827200139728
F-0.0007677492857849072
F0.008422116523565157
F0.0010355000297934639
tp1671
abag0
(g11
g2
Ntp1672
Rp1673
(lp1674
(F0.30384409432934656
F-0.23903342487393878
F1.2351768659250433
F0.04934574010487395
F0.038688060882475735
F0.1264392781078573
tp1675
a(F-4.7905366039936794e-05
F-0.00019939068848185928
F-0.0027255843498019223
F-0.0007228404650876753
F0.008394880683276
F0.0009529181701807967
tp1676
abag0
(g11
g2
Ntp1677
Rp1678
(lp1679
(F0.30378244928529297
F-0.23922898652825503
F1.2324106857484123
F0.048632123178632
F0.047058530849488835
F0.1273468233770214
tp1680
a(F-8.193437900594275e-05
F-0.00018989315914737186
F-0.0028255580123570712
F-0.0006999204391625602
F0.008333070810629534
F0.0008404741630430842
tp1681
abag0
(g11
g2
Ntp1682
Rp1683
(lp1684
(F0.3036858290657587
F-0.2394139996434583
F1.229544794995154
F0.047931143138253154
F0.0553545980723241
F0.1281340258591228
tp1685
a(F-0.00011829922271882721
F-0.0001777961422606022
F-0.002924862147604938
F-0.0007024506858322626
F0.008240101394705069
F0.0007085010467437635
tp1686
abag0
(g11
g2
Ntp1687
Rp1688
(lp1689
(F0.3035519477210112
F-0.2395868085532544
F1.2265802438016937
F0.04721635767343142
F0.06354653156950149
F0.12878598810533598
tp1690
a(F-0.00015687605134633007
F-0.00016543569131237255
F-0.0030225549121579882
F-0.0007328820158168572
F0.008119512746823373
F0.0005684638078772714
tp1691
abag0
(g11
g2
Ntp1692
Rp1693
(lp1694
(F0.3033786478746849
F-0.23974810437933283
F1.2235190271486212
F0.04645929898726727
F0.07160811339847376
F0.12929940285665828
tp1695
a(F-0.0001975293384002267
F-0.00015517404515641645
F-0.0031176871908333735
F-0.0007926122938881447
F0.007974777136772353
F0.0004321354134008002
tp1696
abag0
(g11
g2
Ntp1697
Rp1698
(lp1699
(F0.30316391452727465
F-0.23990088108511318
F1.220364073258462
F0.04563052522080212
F0.07951650073817923
F0.12968252402244707
tp1700
a(F-0.00024010662547186925
F-0.0001492260710419553
F-0.0032093493050895637
F-0.0008819903734919937
F0.007809125883004467
F0.0003107627914948733
tp1701
abag0
(g11
g2
Ntp1702
Rp1703
(lp1704
(F0.3029058943450308
F-0.24005022248342064
F1.2171191873407683
F0.04470065129019184
F0.08725192783907869
F0.12995432334068213
tp1705
a(F-0.000284432692425982
F-0.0001494968987814547
F-0.0032967126265981543
F-0.0010003612411835516
F0.007625408090316508
F0.00021428170075962
tp1706
abag0
(g11
g2
Ntp1707
Rp1708
(lp1709
(F0.302602920785826
F-0.24020293591930358
F1.2137889569381966
F0.04364132062331434
F0.09479728288376868
F0.13014290376132986
tp1710
a(F-0.00033030371082655484
F-0.00015744195470018392
F-0.003379063229109949
F-0.0011461456910087811
F0.007425989432919296
F0.00015063530135045754
tp1711
abag0
(g11
g2
Ntp1712
Rp1713
(lp1714
(F0.3022535448464081
F-0.24036705890289609
F1.2103786277496351
F0.042426086392902046
F0.10213760205644953
F0.13028329221112442
tp1715
a(F-0.00037748195559448216
F-0.0001739589813940712
F-0.0034558253171634357
F-0.001316946784862347
F0.007212696551581575
F0.00012524332207126314
tp1716
abag0
(g11
g2
Ntp1717
Rp1718
(lp1719
(F0.30185657065277544
F-0.24055127363797096
F1.2068939607599032
F0.04103117876487526
F0.10925952740561717
F0.1304147768002107
tp1720
a(F-0.0004256916193110857
F-0.00019931936273991812
F-0.0035265729327580344
F-0.001509674916551632
F0.006986809458628648
F0.00014065759389062928
tp1721
abag0
(g11
g2
Ntp1722
Rp1723
(lp1724
(F0.30141109459984833
F-0.24076427060000824
F1.203341082654615
F0.03943614280105602
F0.11615077614059145
F0.13057798384010577
tp1725
a(F-0.00047461620209547574
F-0.00023314332239798702
F-0.0035910293069755243
F-0.001720683451459595
F0.006749101034222325
F0.0001964261992362524
tp1726
abag0
(g11
g2
Ntp1727
Rp1728
(lp1729
(F0.3009165463167064
F-0.24101410565575435
F1.199726341764863
F0.03762433941263689
F0.1227996667818308
F0.13081190625079825
tp1730
a(F-0.000523897843437656
F-0.0002744205192353709
F-0.00364905413176027
F-0.001945907585404698
F0.006499919470300162
F0.0002891735333410874
tp1731
abag0
(g11
g2
Ntp1732
Rp1733
(lp1734
(F0.30037272942112603
F-0.24130759547540404
F1.196056181152763
F0.0355833086808066
F0.1291947422567795
F0.13115109603746367
tp1735
a(F-0.0005731388290551621
F-0.0003215744341938653
F-0.0037006199139297093
F-0.0021810001473579147
F0.006239306587772494
F0.0004128882455572314
tp1736
abag0
(g11
g2
Ntp1737
Rp1738
(lp1739
(F0.29977985985467903
F-0.24164979317095744
F1.1923370389621382
F0.03330500058735053
F0.13532452197162442
F0.13162321957292347
tp1740
a(F-0.000621905355855237
F-0.0003725659438240689
F-0.0037457793768266735
F-0.002421459430089194
F0.0059671425113002954
F0.0005593963989371653
tp1741
abag0
(g11
g2
Ntp1742
Rp1743
(lp1744
(F0.2991385995694088
F-0.2420435804117837
F1.1885752839249486
F0.03078588250990995
F0.14117740464934408
F0.1322471465403557
tp1745
a(F-0.0006697334825637969
F-0.0004250288093943753
F-0.0037846265385393404
F-0.002662745628456735
F0.005683305395068614
F0.0007189842724602912
tp1746
abag0
(g11
g2
Ntp1747
Rp1748
(lp1749
(F0.2984500834700409
F-0.2424894041264639
F1.1847771910921905
F0.028026935654726075
F0.14674173200388857
F0.1330317036473186
tp1750
a(F-0.0007161370438779599
F-0.00047642765654945307
F-0.0038172545727090147
F-0.002900383955710695
F0.005387833870395479
F0.0008811249220494765
tp1751
abag0
(g11
g2
Ntp1752
Rp1753
(lp1754
(F0.29771593779164623
F-0.24298517586895887
F1.1809489596479172
F0.025033553981177292
F0.1520060109148406
F0.1339751755065691
tp1755
a(F-0.0007606171728495055
F-0.0005242275223653828
F-0.003843713814927673
F-0.003130053864973025
F0.005081079699124439
F0.0010352556163713389
tp1756
abag0
(g11
g2
Ntp1757
Rp1758
(lp1759
(F0.29693828849132375
F-0.24352634070250948
F1.1770967712943852
F0.02181535929420132
F0.15695927951718655
F0.13506558088865797
tp1760
a(F-0.0008026729689696786
F-0.0005660633023396382
F-0.0038639732961094526
F-0.0033476649193596533
F0.00476383877786281
F0.001171550038840933
tp1761
abag0
(g11
g2
Ntp1762
Rp1763
(lp1764
(F0.29611975872493757
F-0.24410611080898967
F1.1732268844045222
F0.018385945314235964
F0.16159159135735243
F0.13628169674322685
tp1765
a(F-0.0008418127754201903
F-0.0005998974856363388
F-0.003877888961984875
F-0.003549420653424125
F0.004437450103728476
F0.0012816299000469478
tp1766
abag0
(g11
g2
Ntp1767
Rp1768
(lp1769
(F0.29526345503105533
F-0.244715847761512
F1.1693457561597076
F0.014762562013531254
F0.16589458225496256
F0.13759474890715043
tp1770
a(F-0.0008775654929624362
F-0.0006241554145247204
F-0.0038851812896033683
F-0.0037318722091320687
F0.0041038544858295715
F0.001359165258749101
tp1771
abag0
(g11
g2
Ntp1772
Rp1773
(lp1774
(F0.2943729424152024
F-0.245345567270803
F1.1654601824400517
F0.010965749693159523
F0.1698620773999904
F0.13897064102919082
tp1775
a(F-0.0009094913618921967
F-0.0006378288815232713
F-0.0038854243676432042
F-0.003891963606792976
F0.003765607524988075
F0.0014003210573340164
tp1776
abag0
(g11
g2
Ntp1777
Rp1778
(lp1779
(F0.2934522090788244
F-0.24598453191638883
F1.1615774434891548
F0.007018930517530326
F0.17349069199887107
F0.14037255525710057
tp1780
a(F-0.0009371916863823729
F-0.0006405410743079594
F-0.003878047711181964
F-0.004027070256423064
F0.0034258445066351205
F0.0014040185462255693
tp1781
abag0
(g11
g2
Ntp1782
Rp1783
(lp1784
(F0.2925056220315413
F-0.2466218914594214
F1.157705442465785
F0.002947963829532113
F0.1767803777615827
F0.1417637322934512
tp1785
a(F-0.0009603170535373453
F-0.0006325685416639975
F-0.0038623511877209863
F-0.004135031790655736
F0.0030881981521894055
F0.0013719936050251972
tp1786
abag0
(g11
g2
Ntp1787
Rp1788
(lp1789
(F0.29153787522983693
F-0.24724732719776285
F1.153852823994047
F-0.001219329226430857
F0.17973486978445752
F0.1431102263144587
tp1790
a(F-0.0009785737062498624
F-0.0006148188005796719
F-0.0038375325009153446
F-0.004214179594220847
F0.0027566734343149575
F0.0013086485226933638
tp1791
abag0
(g11
g2
Ntp1792
Rp1793
(lp1794
(F0.2905539321748668
F-0.24785165666799358
F1.150029060742041
F-0.005453666304482582
F0.18236199380292328
F0.14438343276899607
tp1795
a(F-0.0009917278561394282
F-0.0005887652336794798
F-0.003802725775590026
F-0.004263358621048142
F0.002435486665133968
F0.0012207085501892074
tp1796
abag0
(g11
g2
Ntp1797
Rp1798
(lp1799
(F0.2895589650600751
F-0.24842735782241307
F1.146244497844081
F-0.009724823498637474
F0.1846738020273354
F0.14556220401127717
tp1800
a(F-0.0009996078607476585
F-0.0005563438317039771
F-0.003757048974547963
F-0.0042819423383376985
F0.0021288786139262374
F0.0011167084519299476
tp1801
abag0
(g11
g2
Ntp1802
Rp1803
(lp1804
(F0.288558292579275
F-0.2489689774088602
F1.1425103475206548
F-0.014002166435091131
F0.1866865163084069
F0.1466343978389031
tp1805
a(F-0.0010021043274238484
F-0.0005198189211646008
F-0.0036996572108508783
F-0.004269839023497834
F0.0018409133316259353
F0.001006346384056959
tp1806
abag0
(g11
g2
Ntp1807
Rp1808
(lp1809
(F0.28755731839151905
F-0.2494733962669
F1.138838629378282
F-0.01825518329598319
F0.18842026952726082
F0.14759774515539653
tp1810
a(F-0.0009991683347417228
F-0.00048162710870631645
F-0.003629798545416365
F-0.004227487256656225
F0.0015752755236160142
F0.0008997518733189444
tp1811
abag0
(g11
g2
Ntp1812
Rp1813
(lp1814
(F0.28656147200409215
F-0.24993993407508724
F1.1352420553816358
F-0.022454008063913237
F0.18989864907952114
F0.1484599722312202
tp1815
a(F-0.000990808071523963
F-0.0004442101313590729
F-0.0035468686127495216
F-0.004155838367749015
F0.0013350796390927744
F0.0008067208026101824
tp1816
abag0
(g11
g2
Ntp1817
Rp1818
(lp1819
(F0.2855761535016008
F-0.25037028706791303
F1.1317338621483743
F-0.026569920138618253
F0.1911480592749839
F0.14923816691358285
tp1820
a(F-0.0009770842758638845
F-0.00040984802944655233
F-0.00345046041600424
F-0.004056323852759017
F0.0011227033082452569
F0.0007359727017152368
tp1821
abag0
(g11
g2
Ntp1822
Rp1823
(lp1824
(F0.28460668314660637
F-0.2507683036387306
F1.1283275967768234
F-0.030575804734476915
F0.1921969315524981
F0.14995743282623425
tp1825
a(F-0.000958104906305524
F-0.00038050400985855455
F-0.0033404058784017587
F-0.003930806374568865
F0.0009396563875561219
F0.0006944841291032708
tp1826
abag0
(g11
g2
Ntp1827
Rp1828
(lp1829
(F0.28365825643934284
F-0.2511396137821805
F1.1250368656364504
F-0.03444655745351267
F0.19307482181384503
F0.15064892724332654
tp1830
a(F-0.000934019491490585
F-0.0003576915477113278
F-0.003216806216654727
F-0.0037815138810895882
F0.0007864947530186861
F0.0006869466187416878
tp1831
abag0
(g11
g2
Ntp1832
Rp1833
(lp1834
(F0.282735904786539
F-0.2514911382591575
F1.1218750582104404
F-0.038159416434386195
F0.19381144221493415
F0.1513474232663249
tp1835
a(F-0.0009050135827662897
F-0.00034237274212049794
F-0.003080048883003277
F-0.003610957544312749
F0.0006627852444013728
F0.0007153889247630694
tp1836
abag0
(g11
g2
Ntp1837
Rp1838
(lp1839
(F0.28184446152720927
F-0.2518305115192895
F1.1188550599941616
F-0.04169420672034182
F0.1944356798716275
F0.15208857199607118
tp1840
a(F-0.0008713036788924996
F-0.0003348948027336168
F-0.002930809661534561
F-0.003421835557235441
F0.0005671249848359486
F0.0007789917343575643
tp1841
abag0
(g11
g2
Ntp1842
Rp1843
(lp1844
(F0.28098853272802654
F-0.25216545824255393
F1.1159889694870424
F-0.045033484084706185
F0.1949746567809123
F0.15290606307676133
tp1845
a(F-0.0008331329080738171
F-0.00033496894416434046
F-0.002770039446548183
F-0.003216926207834021
F0.0004972148822735429
F0.0008741094393469697
tp1846
abag0
(g11
g2
Ntp1847
Rp1848
(lp1849
(F0.2801724719181967
F-0.2525031664740423
F1.1132878343904853
F-0.04816256949926288
F0.1954528836757881
F0.15382889065880756
tp1850
a(F-0.0007907676472400322
F-0.0003416930823877325
F-0.002598936213580702
F-0.0029989749542137763
F0.00044998368231467876
F0.0009944989038594549
tp1851
abag0
(g11
g2
Ntp1852
Rp1853
(lp1854
(F0.27940035780145606
F-0.2528497005193436
F1.1107614212265435
F-0.05106947059940272
F0.1958915555943917
F0.15487892582220356
tp1855
a(F-0.0007444951406145112
F-0.0003536167558341034
F-0.0024189036520132125
F-0.002770581324153374
F0.0004217557072456746
F0.0011317404591184958
tp1856
abag0
(g11
g2
Ntp1857
Rp1858
(lp1859
(F0.2786759739695347
F-0.25320949403537313
F1.1084180307715963
F-0.05374469263600679
F0.19630802893756924
F0.1560689761819241
tp1860
a(F-0.0006946220589315161
F-0.0003688438349851928
F-0.00223149879798673
F-0.0025340922354825683
F0.0004084525932580132
F0.001275822621601841
tp1861
abag0
(g11
g2
Ntp1862
Rp1863
(lp1864
(F0.2780027897459154
F-0.2535849582828843
F1.1062643690682363
F-0.056180948140923975
F0.1967155092003942
F0.15740148012162905
tp1865
a(F-0.0006414738272186281
F-0.0003851660301553679
F-0.0020383717292826006
F-0.0022915086802603683
F0.00040581711049022764
F0.0014158502275075418
tp1866
abag0
(g11
g2
Ntp1867
Rp1868
(lp1869
(F0.277383941499885
F-0.253976232676425
F1.1043054805036845
F-0.05837278141476798
F0.19712296604659976
F0.15886793913787967
tp1870
a(F-0.0005853944523639249
F-0.00040021812916416903
F-0.0018412009110590525
F-0.0020444125633739194
F0.00040964566476812644
F0.0015408266331324216
tp1871
abag0
(g11
g2
Ntp1872
Rp1873
(lp1874
(F0.27682221406863733
F-0.2543810951074226
F1.1025447457344901
F-0.0603161304590993
F0.1975352787321465
F0.1604491401431031
tp1875
a(F-0.0005267465100178663
F-0.0004116444335949521
F-0.0016416280768560014
F-0.001793919798891081
F0.0004160154346586355
F0.0016404549876670657
tp1876
abag0
(g11
g2
Ntp1877
Rp1878
(lp1879
(F0.27632002228191693
F-0.2547950386806333
F1.1009839433352264
F-0.06200785458689988
F0.1979536009340619
F0.16211616383685712
tp1880
a(F-0.00046591091014411306
F-0.0004172651113966393
F-0.0014411965723301137
F-0.0015406645502244185
F0.00042149233804505076
F0.0017059017497442432
tp1881
abag0
(g11
g2
Ntp1882
Rp1883
(lp1884
(F0.2758793929663302
F-0.2552115102253192
F1.0996233702074283
F-0.06344526014489404
F0.19837592068463622
F0.16383211927904537
tp1885
a(F-0.00040328605576488987
F-0.00041523119375000075
F-0.0012412968756885497
F-0.0012848178007214244
F0.000423307137631343
F0.0017304677386055889
tp1886
abag0
(g11
g2
Ntp1887
Rp1888
(lp1889
(F0.27550194817899015
F-0.25562229498047895
F1.0984620122555304
F-0.06462565912259094
F0.1987977791965352
F0.16555449249012125
tp1890
a(F-0.0003392860414708519
F-0.0004041577132038366
F-0.0010431225516888821
F-0.0010261413489505945
F0.0004194889173656628
F0.0017101179601389186
tp1891
abag0
(g11
g2
Ntp1892
Rp1893
(lp1894
(F0.2751888907464208
F-0.2560180219457812
F1.0974977538508546
F-0.0655459955639146
F0.19921310265075318
F0.16723795193507202
tp1895
a(F-0.00027433760556243216
F-0.0003832259550031816
F-0.0008476392245016786
F-0.0007640759637222295
F0.00040894777274492783
F0.001643830838680652
tp1896
abag0
(g11
g2
Ntp1897
Rp1898
(lp1899
(F0.274940993431085
F-0.2563887562018816
F1.0967276123597123
F-0.06620257243370613
F0.1996150941290438
F0.16883741930837287
tp1900
a(F-0.0002088756479598413
F-0.0003522478739977466
F-0.0006555683121456688
F-0.0004978599628278671
F0.0003915016940922876
F0.0015337396907765006
tp1901
abag0
(g11
g2
Ntp1902
Rp1903
(lp1904
(F0.27475859318630524
F-0.2567246385843114
F1.0961479826562597
F-0.06659090688165174
F0.19999712925108432
F0.1703111926085764
tp1905
a(F-0.00014333724845313973
F-0.00031168827490200954
F-0.0004673863065370289
F-0.00022667207046889374
F0.0003678460860882544
F0.001385053474452058
tp1906
abag0
(g11
g2
Ntp1907
Rp1908
(lp1909
(F0.27464159197011584
F-0.2570165298397647
F1.095754876165566
F-0.06670573482533218
F0.200353598963966
F0.17162390167671926
tp1910
a(F-7.815425759826758e-05
F-0.00026264319251676535
F-0.00028333937125250564
F5.020975804626465e-05
F0.00033946794065846327
F0.001205759073751272
tp1911
abag0
(g11
g2
Ntp1912
Rp1913
(lp1914
(F0.27458946545860485
F-0.25725661601877925
F1.0955441396138268
F-0.06654117675512569
F0.2006806463460351
F0.17274908478143305
tp1915
a(F-1.3744675290878738e-05
F-0.0002067758500696382
F-0.00010347203044060993
F0.00033324360533482566
F0.00030851013793306304
F0.0010061225945697575
tp1916
abag0
(g11
g2
Ntp1917
Rp1918
(lp1919
(F0.2746012807290201
F-0.25743893438751675
F1.0955116402608538
F-0.06609106612595285
F0.20097675102397583
F0.17367119803371706
tp1920
a(F4.949683126304092e-05
F-0.0001462144208547277
F7.233219717305447e-05
F0.0006224641938521383
F0.0002775944725202651
F0.0007980213101072915
tp1921
abag0
(g11
g2
Ntp1922
Rp1923
(lp1924
(F0.2746757235828086
F-0.25755978440208005
F1.095653406851136
F-0.06534943026537855
F0.20124312444622397
F0.17438690595635045
tp1925
a(F0.00011120879877736078
F-8.341838031543959e-05
F0.0002443011446550964
F0.0009173405438344732
F0.0002496145918173233
F0.0005941500241759385
tp1926
abag0
(g11
g2
Ntp1927
Rp1928
(lp1929
(F0.2748111356699166
F-0.25761799592732243
F1.0959657186828118
F-0.06431110212104356
F0.2014838912077981
F0.17490554904245476
tp1930
a(F0.0001710726643376815
F-2.102234148950441e-05
F0.00041271883656303295
F0.0012166621199459899
F0.00022751192507524398
F0.00040715487197756753
tp1931
abag0
(g11
g2
Ntp1932
Rp1933
(lp1934
(F0.27500556098863493
F-0.2576150363854785
F1.0964451388510215
F-0.06297243017944985
F0.2017060451352284
F0.17524873947096556
tp1935
a(F0.00022882166611683927
F3.833222403126725e-05
F0.0005778686911179824
F0.001518463804311942
F0.0002140487559905405
F0.0002487532948479073
tp1936
abag0
(g11
g2
Ntp1937
Rp1938
(lp1939
(F0.27525680070815306
F-0.25755494925107025
F1.0970884916321755
F-0.06133204430729114
F0.2019191830696633
F0.17544909559910296
tp1940
a(F0.0002842483122428312
F9.216616506385095e-05
F0.0007399790546427918
F0.0018199981589801016
F0.0002115927789297075
F0.00012890068738250572
tp1941
abag0
(g11
g2
Ntp1942
Rp1943
(lp1944
(F0.27556247463700706
F-0.2574441275488833
F1.097892787880105
F-0.05939162784290042
F0.20213503333950755
F0.1755481854053316
tp1945
a(F0.00033720981184026194
F0.00013832145318057578
F0.0008991748756764535
F0.0021177608672399567
F0.00022192676674772329
F5.5061866933568336e-05
tp1946
abag0
(g11
g2
Ntp1947
Rp1948
(lp1949
(F0.2759200870852134
F-0.2572909370094874
F1.0988551059447917
F-0.057156641644057246
F0.20236680890937314
F0.1755938046492935
tp1950
a(F0.00038763093805265506
F0.000175099023817791
F0.0010554389105884607
F0.002407572104133772
F0.00024609541063663434
F3.163917829456917e-05
tp1951
abag0
(g11
g2
Ntp1952
Rp1953
(lp1954
(F0.27632709438557895
F-0.25710521355676963
F1.09997243875688
F-0.054636944472349395
F0.2026284263139299
F0.17563676331714398
tp1955
a(F0.0004355039114552138
F0.00020136647050917258
F0.0012085852102548913
F0.0026847130614014235
F0.00028429906767673765
F5.95991123829387e-05
tp1956
abag0
(g11
g2
Ntp1957
Rp1958
(lp1959
(F0.2767809709908884
F-0.2568976681750947
F1.1012415201365782
F-0.05184725636257798
F0.2029336400351182
F0.17572739059212164
tp1960
a(F0.00048088504774464435
F0.00021662841875099906
F0.0013582468099713532
F0.002944113156209474
F0.000335841215719323
F0.0001363264242896644
tp1961
abag0
(g11
g2
Ntp1962
Rp1963
(lp1964
(F0.2772792708817379
F-0.2566792383712132
F1.1026586449204818
F-0.04880741756306957
F0.20329514742237162
F0.17591199151145964
tp1965
a(F0.0005238880972179318
F0.00022105489665355266
F0.00150387858615107
F0.00318057982407814
F0.00039913305242132913
F0.00025571972470837475
tp1966
abag0
(g11
g2
Ntp1967
Rp1968
(lp1969
(F0.27781968102842935
F-0.2564604289966175
F1.1042194980483995
F-0.04554240507320818
F0.20372372124661894
F0.17622949592407566
tp1970
a(F0.0005646744043280404
F0.0002154658222904626
F0.0016447752162103155
F0.003389059479538502
F0.0004717550970555701
F0.00040852637992471017
tp1971
abag0
(g11
g2
Ntp1972
Rp1973
(lp1974
(F0.278400063861605
F-0.2562506858931279
F1.1059190072731715
F-0.04208208134051795
F0.20422742539534947
F0.17670853165529468
tp1975
a(F0.0006034402209422333
F0.00020127265550958932
F0.0017801031498494377
F0.003564915459391341
F0.0005505720849917942
F0.0005828983632041063
tp1976
abag0
(g11
g2
Ntp1977
Rp1978
(lp1979
(F0.279018486119368
F-0.2560578436218599
F1.1077512326761039
F-0.03846066467771277
F0.20481096415796948
F0.1773651293005827
tp1980
a(F0.0006404017034481496
F0.00018038111972669242
F0.001908944538510632
F0.0037042067539457928
F0.0006318941096008796
F0.0007651355407881519
tp1981
abag0
(g11
g2
Ntp1982
Rp1983
(lp1984
(F0.2796732320392841
F-0.25588768358040154
F1.109709303781508
F-0.03471592759214409
F0.20547520733619618
F0.17820122725731352
tp1985
a(F0.0006757782982542157
F0.00015506149649990175
F0.002030350238851558
F0.003803950251850371
F0.0007116740740040622
F0.0009405697748664135
tp1986
abag0
(g11
g2
Ntp1987
Rp1988
(lp1989
(F0.2803627996248074
F-0.25574363143541257
F1.1117854119188386
F-0.030888146508884762
F0.20621692255937524
F0.17920409488340788
tp1990
a(F0.000709775360179023
F0.00012779515952615028
F0.0021433983610545833
F0.0038623491912611945
F0.0007857292467223553
F0.0010945330809860457
tp1991
abag0
(g11
g2
Ntp1992
Rp1993
(lp1994
(F0.2810858795985967
F-0.25562661348961213
F1.1139708617835666
F-0.027018843245542573
F0.2070287333706257
F0.18034673228638431
tp1995
a(F0.0007425669431869416
F0.00010110760104950931
F0.0022472544171989605
F0.0038789715780120824
F0.0008499732125655468
F0.0012133465960964815
tp1996
abag0
(g11
g2
Ntp1997
Rp1998
(lp1999
(F0.28184131761167397
F-0.25553508098347877
F1.1162561821392691
F-0.02314937396717205
F0.20789930768003598
F0.18158924104973945
tp2000
a(F0.0007742797449134959
F7.739910688498918e-05
F0.002341228967443751
F0.0038548644847412965
F0.0009006438663867075
F0.0012852647657803989
tp2001
abag0
(g11
g2
Ntp2002
Rp2003
(lp2004
(F0.28262806125247875
F-0.255465200110465
F1.1186312915463699
F-0.019319434162806667
F0.20881376693066367
F0.18288109541013486
tp2005
a(F0.0008049791705707685
F5.878439609246679e-05
F0.0024248287743450937
F0.0037925932972197934
F0.0009345133518310104
F0.001301311144682117
tp2006
abag0
(g11
g2
Ntp2007
Rp2008
(lp2009
(F0.2834450943352055
F-0.2554111944479607
F1.1210857111653834
F-0.015565557504474088
F0.20975429268311394
F0.1841641823072232
tp2010
a(F0.0008346584067900544
F4.6951946892841844e-05
F0.0024977978526205553
F0.0036961989710623793
F0.0009490669826328278
F0.0012559484366593083
tp2011
abag0
(g11
g2
Ntp2012
Rp2013
(lp2014
(F0.28429136178414494
F-0.2553658163131299
F1.1236088133194986
F-0.011919691517187601
F0.21070089514663037
F0.1853764254367859
tp2015
a(F0.0008632312641038128
F4.305242086416411e-05
F0.002560145420150534
F0.003571070988770097
F0.0009426401277609928
F0.001147535512896011
tp2016
abag0
(g11
g2
Ntp2017
Rp2018
(lp2019
(F0.2851656891156836
F-0.25532091492324754
F1.1261900918387775
F-0.008407933280964912
F0.2116322982275077
F0.1864557665731294
tp2020
a(F0.0008905293640878043
F4.7623659393882623e-05
F0.00261215857718909
F0.00342373870007419
F0.0009145046705563401
F0.000978537509799891
tp2021
abag0
(g11
g2
Ntp2022
Rp2023
(lp2024
(F0.28606670100508824
F-0.2552680627509826
F1.1288194384277246
F-0.005049503657188262
F0.21252688854730245
F0.18734424989811563
tp2025
a(F0.0009163040230186501
F6.05572881025677e-05
F0.0026543985124620677
F0.0032615887907281238
F0.0008648997999711337
F0.0007554708767149155
tp2026
abag0
(g11
g2
Ntp2027
Rp2028
(lp2029
(F0.2869927436746559
F-0.25519919755116965
F1.131487408524923
F-0.0018560288388132715
F0.21336367204283946
F0.18799194387723914
tp2030
a(F0.0009402329304274485
F8.110918801930775e-05
F0.0026876800948125125
F0.0030925214434638754
F0.0007950053609157801
F0.0004885824033560495
tp2031
abag0
(g11
g2
Ntp2032
Rp2033
(lp2034
(F0.2879418158297068
F-0.25510723646130046
F1.134185460418471
F0.001168816264448965
F0.21412318143030915
F0.1883604412996971
tp2035
a(F0.0009619314524567493
F0.00010795316075029436
F0.0027130357889976206
F0.002924562020776759
F0.0007068595626802398
F0.000191278695142383
tp2036
abag0
(g11
g2
Ntp2037
Rp2038
(lp2039
(F0.2889115125905496
F-0.25498662041927583
F1.1369061527358169
F0.004029266510768132
F0.21478828100945394
F0.18842570126666508
tp2040
a(F0.0009809681220557286
F0.00013927422320533512
F0.0027316658641647453
F0.002765448526989893
F0.0006032262956331583
F-0.00012066085999697684
tp2041
abag0
(g11
g2
Ntp2042
Rp2043
(lp2044
(F0.2898989863289973
F-0.25483375178142975
F1.1396432877640825
F0.006737011792368736
F0.2153448217930879
F0.18818003586469897
tp2045
a(F0.0009968836267262727
F0.00017289530766134673
F0.0027448777763053617
F0.0026222174534004735
F0.0004874204212663038
F-0.0004300399719549492
tp2046
abag0
(g11
g2
Ntp2047
Rp2048
(lp2049
(F0.2909009275400006
F-0.25464729515807016
F1.142391991235741
F0.009310337036884206
F0.21578210935719272
F0.1876330966471235
tp2050
a(F0.0010092123850849693
F0.00020642889197225965
F0.002754018341675283
F0.002500811690837948
F0.0003631019851703223
F-0.0007193108305351788
tp2051
abag0
(g11
g2
Ntp2052
Rp2053
(lp2054
(F0.29191356789993156
F-0.25442832064325455
F1.1451487230377417
F0.011772888463219996
F0.21609315852248473
F0.18681177861090376
tp2055
a(F0.0010175056296810937
F0.00023744339272928358
F0.00276040282794393
F0.0024057338965046637
F0.00023405219650952483
F-0.0009716816869436896
tp2056
abag0
(g11
g2
Ntp2057
Rp2058
(lp2059
(F0.2929327065331811
F-0.2541802791953885
F1.147911217529954
F0.014152120310175155
F0.2162747222620001
F0.18575902814742062
tp2060
a(F0.0010213547966157542
F0.00026363313459125035
F0.0027652453391522726
F0.0023397669957079302
F0.00010394510455442748
F-0.0011721956595299237
tp2061
abag0
(g11
g2
Ntp2062
Rp2063
(lp2064
(F0.2939537592882597
F-0.2539088112250486
F1.1506783565234004
F0.016477496701465293
F0.21632709624737723
F0.18453161206389612
tp2065
a(F0.0010204139706823949
F0.00028298043110201737
F0.002769594841446937
F0.0023037804388025833
F-2.387088271727976e-05
F-0.001308710683180753
tp2066
abag0
(g11
g2
Ntp2067
Rp2068
(lp2069
(F0.294971829580371
F-0.25362140071618905
F1.153449982191661
F0.018778540204844846
F0.21625371432220136
F0.18319697265477677
tp2070
a(F0.0010144201524263665
F0.0002938987965456401
F0.0027742808688402633
F0.0022966365586843665
F-0.00014656816172410708
F-0.0013727159725710559
tp2071
abag0
(g11
g2
Ntp2072
Rp2073
(lp2074
(F0.2959817981591373
F-0.25332689769643735
F1.1562266609985676
F0.021082830858893387
F0.2160605630587656
F0.1818293545165984
tp2075
a(F0.0010032102011068623
F0.000295347524999354
F0.002779872379624193
F0.00231520610207691
F-0.0002619998092374478
F-0.001359930069761416
tp2076
abag0
(g11
g2
Ntp2077
Rp2078
(lp2079
(F0.2969784280762119
F-0.25303494088065054
F1.1590094128749013
F0.023414066096466173
F0.21575545461544252
F0.18050543833218666
tp2080
a(F0.0009867334613392427
F0.0002869097436311292
F0.0027866524390566306
F0.002354496023082386
F-0.0003688144513170012
F-0.0012706389118152912
tp2081
abag0
(g11
g2
Ntp2082
Rp2083
(lp2084
(F0.29795648022104393
F-0.2527553192340257
F1.161799422159743
F0.02579029251168385
F0.21534720568171736
F0.1792997518693647
tp2085
a(F0.0009650592935669781
F0.00026882845106082105
F0.002794610431731597
F0.0024078862655649387
F-0.0004665192528484597
F-0.001109748557634179
tp2086
abag0
(g11
g2
Ntp2087
Rp2088
(lp2089
(F0.2989108341181373
F-0.25249731556727945
F1.1645977480857372
F0.028222414568948025
F0.21484477585099593
F0.17828014651799487
tp2090
a(F0.0009383789883036696
F0.0002419978314558171
F0.0028034524184135526
F0.002467465889275198
F-0.0005554874212934999
F-0.0008865452382737143
tp2091
abag0
(g11
g2
Ntp2092
Rp2093
(lp2094
(F0.2998366082775155
F-0.25226907678417665
F1.1674050527430893
F0.03071307328061529
F0.2142564209621282
F0.17750362746732049
tp2095
a(F0.0009070018372419401
F0.00020791010894510896
F0.002812629115585158
F0.002524452890734713
F-0.0006369100971631915
F-0.0006141740987981164
tp2096
abag0
(g11
g2
Ntp2097
Rp2098
(lp2099
(F0.3007292742886056
F-0.25207705393588137
F1.1702213634857725
F0.03325597009991707
F0.21358891567439744
F0.17701280690775606
tp2100
a(F0.000871345444697534
F0.0001685611795379077
F0.0028213798634585756
F0.0025696767987437377
F-0.0007126959773973699
F-0.0003088661861561034
tp2101
abag0
(g11
g2
Ntp2102
Rp2103
(lp2104
(F0.30158475905660476
F-0.25192555087771623
F1.1730458846978289
F0.035835688653600976
F0.21284689488044115
F0.17683321341885005
tp2105
a(F0.0008319206731322196
F0.00012632103304399976
F0.0028287899305049023
F0.0025940989159354876
F-0.0007853252692657469
F1.1040266246484457e-05
tp2106
abag0
(g11
g2
Ntp2107
Rp2108
(lp2109
(F0.30239953009244996
F-0.25181641334353083
F1.1758768708388905
F0.03842804064821771
F0.21203235582119007
F0.17697163910253477
tp2110
a(F0.0007893119092122075
F8.377737172741015e-05
F0.002833857644769235
F0.002589342206370914
F-0.0008576673993077073
F0.000326224474840486
tp2111
abag0
(g11
g2
Ntp2112
Rp2113
(lp2114
(F0.3031706595584877
F-0.25174888109657206
F1.1787115689184293
F0.041000933743277124
F0.21114435244170388
F0.17741564216871275
tp2115
a(F0.0007441535954097195
F4.3562686020674343e-05
F0.002835567199641301
F0.0025482014956749086
F-0.0009327741292182082
F0.0006175838193155407
tp2116
abag0
(g11
g2
Ntp2117
Rp2118
(lp2119
(F0.30389586380172123
F-0.25171961507464663
F1.181546234239856
F0.04351572997775818
F0.21017890127158628
F0.17813425052370052
tp2120
a(F0.0006971041817817227
F8.176235720662014e-06
F0.0028329625962576705
F0.0024651049686758263
F-0.0010136612216414102
F0.0008674350773628729
tp2121
abag0
(g11
g2
Ntp2122
Rp2123
(lp2124
(F0.3045735163212862
F-0.25172289982012436
F1.1843762186760287
F0.045929035123270665
F0.20912910470134033
F0.17907983596489685
tp2125
a(F0.0006488188012020618
F-2.018717424684518e-05
F0.0028252180821661315
F0.0023364999385508205
F-0.0011030924632817547
F0.0010606396687442364
tp2126
abag0
(g11
g2
Ntp2127
Rp2128
(lp2129
(F0.3052026334520955
F-0.2517510097329677
F1.1871961261732353
F0.04819483375604713
F0.20798548379869805
F0.18019105364662102
tp2130
a(F0.0005999220503309549
F-3.979007468381321e-05
F0.0028117006343702402
F0.002161139441485555
F-0.001203379652323948
F0.001185580303198232
tp2131
abag0
(g11
g2
Ntp2132
Rp2133
(lp2134
(F0.30578283343083956
F-0.2517947165815177
F1.1900000259181576
F0.050266863411327134
F0.20673649962511434
F0.18139667233385312
tp2135
a(F0.0005509822632439884
F-4.9476424770366455e-05
F0.0027920205041464916
F0.0019402512070233156
F-0.0013162111077945774
F0.001234924994116697
tp2136
abag0
(g11
g2
Ntp2137
Rp2138
(lp2139
(F0.30631427086914925
F-0.2518439059878761
F1.192781709911248
F0.05210110521829922
F0.20536923019341086
F0.1826200620619707
tp2140
a(F0.0005024885943672382
F-4.875827231094826e-05
F0.0027660665630993343
F0.001677576705444596
F-0.001442519429089709
F0.00120612712874373
tp2141
abag0
(g11
g2
Ntp2142
Rp2143
(lp2144
(F0.3067975499182706
F-0.25188826292354266
F1.195534978805351
F0.0536582589319603
F0.2038701604856811
F0.18378406102306874
tp2145
a(F0.000454832085852687
F-3.785872193264169e-05
F0.0027340241207676305
F0.0013792749463263888
F-0.0015823967417641818
F0.0011016264084272487
tp2146
abag0
(g11
g2
Ntp2147
Rp2148
(lp2149
(F0.30723362050195097
F-0.2519179811293257
F1.1982539379759043
F0.05490606794540117
F0.20222603592484292
F0.18481591579784434
tp2150
a(F0.00040829168945938365
F-1.7707768799924664e-05
F0.0026963739663870036
F0.001053693110014062
F-0.0017350626690648349
F0.0009287340007773561
tp2151
abag0
(g11
g2
Ntp2152
Rp2153
(lp2154
(F0.3076236628603533
F-0.25192444917131457
F1.2009332850130214
F0.055821364947928075
F0.2004247257917612
F0.1856519803880409
tp2155
a(F0.00036302595561607726
F1.0109374932232889e-05
F0.002653872554068805
F0.0007110135178578454
F-0.0018988869566796264
F0.0006992050312448932
tp2156
abag0
(g11
g2
Ntp2157
Rp2158
(lp2159
(F0.30796896624109754
F-0.2519008667344773
F1.2035685702211825
F0.05639172123574634
F0.19845604253402102
F0.18624187063585146
tp2160
a(F0.00031907080676621267
F4.344870922816721e-05
F0.002607514429043276
F0.0003627934623898064
F-0.002071465258774011
F0.00042852134816526914
tp2161
abag0
(g11
g2
Ntp2162
Rp2163
(lp2164
(F0.3082708078623423
F-0.2518427487102718
F1.2061564132611482
F0.05661660170920008
F0.19631246574318914
F0.1865518010603398
tp2165
a(F0.00027634349455406894
F7.974290225007379e-05
F0.002558479109081059
F2.142061770968492e-05
F-0.0022497432804604307
F0.00013492607544669121
tp2166
abag0
(g11
g2
Ntp2167
Rp2168
(lp2169
(F0.3085303382422077
F-0.251748281428474
F1.208694661680786
F0.056507952339859426
F0.19398972559488753
F0.18656687919369172
tp2170
a(F0.00023465251826768543
F0.00011616740966927222
F0.0025080656196994158
F-0.0003004882321427313
F-0.0024301814717548466
F-0.00016173235880005753
tp2171
abag0
(g11
g2
Ntp2172
Rp2173
(lp2174
(F0.3087484786412892
F-0.2516185046043681
F1.2111824805997364
F0.05609017605864651
F0.19148720936219504
F0.1862921953365705
tp2175
a(F0.0001937129727319395
F0.0001498267735199545
F0.0024576186722140647
F-0.0005907138744612073
F-0.0026089499668322134
F-0.00044127629872300564
tp2176
abag0
(g11
g2
Ntp2177
Rp2178
(lp2179
(F0.3089258357201761
F-0.25145730364812874
F1.2136203670229044
F0.05539948503118579
F0.18880816566661252
F0.1857526194932106
tp2180
a(F0.00015316651422829424
F0.00017794915361621743
F0.0024084510199410647
F-0.0008380536537394335
F-0.0027821416141665294
F-0.0006845161654313112
tp2181
abag0
(g11
g2
Ntp2182
Rp2183
(lp2184
(F0.3090626376074154
F-0.25127120921640744
F1.2160100869012185
F0.054482650396926895
F0.18595969372341403
F0.18499129759050179
tp2185
a(F0.00011260489791873818
F0.00019807643823855026
F0.0023617667947635253
F-0.0010328996493136557
F-0.0029459898607755116
F-0.0008745264961229409
tp2186
abag0
(g11
g2
Ntp2187
Rp2188
(lp2189
(F0.30915869445473
F-0.2510690134985574
F1.2183545378483935
F0.05339520292159562
F0.18295251817761876
F0.18406692098086233
tp2190
a(F7.159586198789446e-05
F0.00020823738398263137
F0.0023185905960081275
F-0.0011677447681334608
F-0.0030970780019552394
F-0.0009977997177358572
tp2191
abag0
(g11
g2
Ntp2192
Rp2193
(lp2194
(F0.3092133852860311
F-0.25086122491159096
F1.2206575450626116
F0.052199167839265224
F0.17980056337734854
F0.18304992158382055
tp2195
a(F2.9710021348179655e-05
F0.00020709214850410604
F0.002279706776704195
F-0.0012375890691589029
F-0.0032325268992587047
F-0.0010452032133515495
tp2196
abag0
(g11
g2
Ntp2197
Rp2198
(lp2199
(F0.30922567159289527
F-0.25065939383856073
F1.222923602203134
F0.05096044275993675
F0.1765203532658493
F0.18201781491766622
tp2200
a(F-1.3452607389409735e-05
F0.000194038253829194
F0.002245612767827889
F-0.0012402237973774199
F-0.0033501496641467486
F-0.0010126764998873862
tp2201
abag0
(g11
g2
Ntp2202
Rp2203
(lp2204
(F0.3091941367634917
F-0.2504753510646071
F1.225157572470932
F0.04974594743566597
F0.17313027372486375
F0.1810499702731017
tp2205
a(F-5.823779653417635e-05
F0.0001692703526050677
F0.0022164894353534728
F-0.0011763770552822767
F-0.0034485639129529315
F-0.0009016206415858236
tp2206
abag0
(g11
g2
Ntp2207
Rp2208
(lp2209
(F0.3091170491259791
F-0.2503204070399883
F1.2273643677189194
F0.04862068726824123
F0.1696497425108565
F0.18022212770800047
tp2210
a(F-0.00010491525898678976
F0.00013378902308147108
F0.0021921904291939153
F-0.001049712422236038
F-0.0035272548867025027
F-0.0007189504637541263
tp2211
abag0
(g11
g2
Ntp2212
Rp2213
(lp2214
(F0.3089924452084889
F-0.25020456358240806
F1.229548624906836
F0.047644877937479825
F0.16609833738055305
F0.17960100271117319
tp2215
a(F-0.00015366084149528214
F8.935701472683621e-05
F0.0021722513206750877
F-0.0008666797364799269
F-0.003586585827466398
F-0.0004768005935294851
tp2216
abag0
(g11
g2
Ntp2217
Rp2218
(lp2219
(F0.30881822882558657
F-0.2501357898595799
F1.2317143995204025
F0.0468712760884873
F0.16249493527164105
F0.17923931977350416
tp2220
a(F-0.00020454362133162285
F3.840470613834849e-05
F0.0021559181073269166
F-0.0006362252379068332
F-0.0036277553169440225
F-0.00019189759546319826
tp2221
abag0
(g11
g2
Ntp2222
Rp2223
(lp2224
(F0.30859228084424883
F-0.25011941140829813
F1.2338648946688664
F0.04634285074110583
F0.15885691435610536
F0.17917159546335218
tp2225
a(F-0.000257518508278685
F-1.6110189355478247e-05
F0.0021421934653897403
F-0.00036937588314267896
F-0.003652704605715703
F0.0001153688101316373
tp2226
abag0
(g11
g2
Ntp2227
Rp2228
(lp2229
(F0.308312573996312
F-0.25015765469804174
F1.2360022425088208
F0.046090912518649454
F0.15519946649245495
F0.17941095096607235
tp2230
a(F-0.0003124246671383687
F-7.088063442700683e-05
F0.0021298980254302394
F-7.871945879599993e-05
F-0.0036639810860760397
F0.0004221235344508094
tp2231
abag0
(g11
g2
Ntp2232
Rp2233
(lp2234
(F0.30797728690943427
F-0.25024938068594765
F1.238127351536231
F0.04613379389043587
F0.15153506034574518
F0.17994717568554985
tp2235
a(F-0.0003689897782220965
F-0.0001224554230610535
F0.002117743003195622
F0.00022219225059642777
F-0.003664566793493749
F0.0007043650473698351
tp2236
abag0
(g11
g2
Ntp2237
Rp2238
(lp2239
(F0.30758491162951135
F-0.25039002946694705
F1.2402398293283574
F0.04647614469563606
F0.1478730856815257
F0.18074619079186055
tp2240
a(F-0.00042683986037857403
F-0.00016745900172920154
F0.002104409794902955
F0.0005194858539622636
F-0.0036576829923999966
F0.0009384255924398601
tp2241
abag0
(g11
g2
Ntp2242
Rp2243
(lp2244
(F0.30713434929318123
F-0.2505717851777724
F1.2423379857413517
F0.04710887485974003
F0.1442196976872489
F0.181750978809284
tp2245
a(F-0.0004855141083258592
F-0.00020281232561786933
F0.002088631688786241
F0.000799620522471008
F-0.003646583377329672
F0.0011024455804593042
tp2246
abag0
(g11
g2
Ntp2247
Rp2248
(lp2249
(F0.3066249892538441
F-0.25078395655365704
F1.2444189166550401
F0.04800974221695937
F0.1405778673641809
F0.18288395739527163
tp2250
a(F-0.0005444839571910946
F-0.00022594080189565382
F0.002069272681971326
F0.001050019624630665
F-0.0036343491100001824
F0.0011777730017090713
tp2251
abag0
(g11
g2
Ntp2252
Rp2253
(lp2254
(F0.3060567678298962
F-0.2510135548084432
F1.2464786634029272
F0.04914454959005459
F0.1369476308670835
F0.1840506876364015
tp2255
a(F-0.0006031753938317693
F-0.00023495591847064558
F0.002045398534729011
F0.0012596468813763624
F-0.003623698775133962
F0.0011502020159572816
tp2256
abag0
(g11
g2
Ntp2257
Rp2258
(lp2259
(F0.30543020388051795
F-0.2512460376663152
F1.2485124383354593
F0.050468883614661494
F0.13332651797136166
F0.18514472478646143
tp2260
a(F-0.0006609933955501594
F-0.0002287985423374309
F0.0020163356353359004
F0.001419497272492839
F-0.0036168253823777204
F0.0010109734061791167
tp2261
abag0
(g11
g2
Ntp2262
Rp2263
(lp2264
(F0.3047464095657218
F-0.2514661772248145
F1.2505149028259117
F0.05193029996690945
F0.12971012841143736
F0.18605334740962814
tp2265
a(F-0.0007173472978669518
F-0.00020733401994782566
F0.001981713962421509
F0.0015229777323523311
F-0.0036152708286692715
F0.0007574728386696677
tp2266
abag0
(g11
g2
Ntp2267
Rp2268
(lp2269
(F0.3040070758525147
F-0.2516590005867806
F1.2524804806962615
F0.05347083717845996
F0.1260928153742899
F0.18666384378901354
tp2270
a(F-0.0007716758763427713
F-0.000171391999026876
F0.0019414913754367054
F0.0015661588324036597
F-0.003619845871561084
F0.0003935800930868459
tp2271
abag0
(g11
g2
Ntp2272
Rp2273
(lp2274
(F0.30321443352616756
F-0.25181074643576784
F1.25440368772241
F0.05502972531264286
F0.12246842854004876
F0.18686999577475272
tp2275
a(F-0.00082347097186829
F-0.00012274715275010982
F0.00189595758132197
F0.0015478858079531954
F-0.003630600795900267
F-7.03573969010899e-05
tp2276
abag0
(g11
g2
Ntp2277
Rp2278
(lp2279
(F0.30237119159536546
F-0.25190977834130623
F1.2562794567207338
F0.056546147265132046
F0.11883106516989658
F0.18657838245213101
tp2280
a(F-0.0008722985899956455
F-6.404052884287992e-05
F0.0018457173495331923
F0.0014697450399214608
F-0.0036468487611858594
F-0.0006179314077363211
tp2281
abag0
(g11
g2
Ntp2282
Rp2283
(lp2284
(F0.3014804559886468
F-0.2519473967612915
F1.2581034377980638
F0.05796190975812233
F0.11517577709769734
F0.18571413035075565
tp2285
a(F-0.000917816555495848
F1.3551448331320163e-06
F0.0017916538046855136
F0.001335890009088069
F-0.00366724049192633
F-0.0012274424990740336
tp2286
abag0
(g11
g2
Ntp2287
Rp2288
(lp2289
(F0.3005456322814568
F-0.2519184964379521
F1.2598722546672296
F0.05922388819185762
F0.11149918413293275
F0.18422576331960414
tp2290
a(F-0.0009597879937773086
F6.951940857977152e-05
F0.001734873840488925
F0.0011527383552119108
F-0.0036898857230748087
F-0.0018729930533592579
tp2291
abag0
(g11
g2
Ntp2292
Rp2293
(lp2294
(F0.2995703168330849
F-0.25182202392522013
F1.2615837004180237
F0.060286123937407794
F0.10779995017322729
F0.18208885227669197
tp2295
a(F-0.0009980901297328515
F0.00013620738684071387
F0.001676638797137322
F0.0009285585700968151
F-0.0037125138368843476
F-0.0025258451407858553
tp2296
abag0
(g11
g2
Ntp2297
Rp2298
(lp2299
(F0.29855818112724974
F-0.25166120090066496
F1.2632368596460286
F0.06111147352702883
F0.10407908690662741
F0.17930823018958703
tp2300
a(F-0.0010327181296052887
F0.00019710004050551894
F0.0016182844605352347
F0.0006729706497582565
F-0.0037326636089699554
F-0.003155968476839388
tp2301
abag0
(g11
g2
Ntp2302
Rp2303
(lp2304
(F0.2975128542881809
F-0.25144349208919314
F1.264832148174592
F0.06167273529456523
F0.10034006083722624
F0.17591861715724402
tp2305
a(F-0.0010637839498811531
F0.0002480670882835062
F0.0015611351202482375
F0.0003963894094872402
F-0.0037478900745013355
F-0.0037336919192087524
tp2306
abag0
(g11
g2
Ntp2307
Rp2308
(lp2309
(F0.29643780868728326
F-0.25118031130229923
F1.2663712665038764
F0.06195320882626713
F0.09658869183365261
F0.17198358978515443
tp2310
a(F-0.0010915103867610541
F0.0002854273192600704
F0.001506416822594881
F0.00010944189329640935
F-0.0037559753473390867
F-0.004231365114231089
tp2311
abag0
(g11
g2
Ntp2312
Rp2313
(lp2314
(F0.2953362532772699
F-0.250886474423305
F1.2678570682964365
F0.06194667439553425
F0.09283284472022843
F0.16759292302146228
tp2315
a(F-0.0011162207292159138
F0.00030619090055222537
F0.0014551750512715185
F-0.00017760875138410839
F-0.003755129848201628
F-0.004624935468480633
tp2316
abag0
(g11
g2
Ntp2317
Rp2318
(lp2319
(F0.294211038814941
F-0.2505794232475304
F1.2692933503550283
F0.06165681157127246
F0.08908192879410828
F0.16285842580888107
tp2320
a(F-0.0011383245984749098
F0.0003082690723827554
F0.0014082018538325615
F-0.00045540144589147763
F-0.003744170846583493
F-0.004895349688058421
tp2321
abag0
(g11
g2
Ntp2322
Rp2323
(lp2324
(F0.2930645784932127
F-0.2502782580261124
F1.2706845753600324
F0.06109610661465394
F0.08534623274352986
F0.15790847889496726
tp2325
a(F-0.0011583006995576435
F0.0002906382781211485
F0.0013659769202085748
F-0.0007159485466267006
F-0.0037226664691866044
F-0.0050296984717258
tp2326
abag0
(g11
g2
Ntp2327
Rp2328
(lp2329
(F0.2918987867366669
F-0.25000262853327715
F1.2720355428249568
F0.06028432542943763
F0.08163613349290606
F0.15288155887085636
tp2330
a(F-0.0011766773111198377
F0.0002534482075016713
F0.001328626338901079
F-0.0009530157702710527
F-0.0036910353009646877
F-0.005022037029023299
tp2331
abag0
(g11
g2
Ntp2332
Rp2333
(lp2334
(F0.290715038065912
F-0.24977154275939425
F1.2733510270488893
F0.059246651228407096
F0.07796122633206132
F0.1479190925628384
tp2335
a(F-0.0011940113959440694
F0.00019806629972388574
F0.0012959017530961962
F-0.0011623915845379897
F-0.0036505942859122783
F-0.0048738321077160555
tp2336
abag0
(g11
g2
Ntp2337
Rp2338
(lp2339
(F0.28951414704900064
F-0.24960215835919786
F1.2746354030953928
F0.05801160253239026
F0.07432942975388478
F0.14315802677490744
tp2340
a(F-0.0012108672259372466
F0.0001270547838333795
F0.0012671814713653695
F-0.0013420335060290243
F-0.0036035506696138766
F-0.004594007113910693
tp2341
abag0
(g11
g2
Ntp2342
Rp2343
(lp2344
(F0.2882963694765724
F-0.2495086243760496
F1.2758922828715342
F0.05660885679072819
F0.0707461213461751
F0.13872351767637073
tp2345
a(F-0.001227795384947272
F4.408012343190613e-05
F0.0012414938241458468
F-0.001492085890793722
F-0.00355293703362653
F-0.004198579483620136
tp2346
abag0
(g11
g2
Ntp2347
Rp2348
(lp2349
(F0.28706142406153046
F-0.24950103934847423
F1.2771241831524693
F0.05506710736126064
F0.06721336066572217
F0.13472214069736946
tp2350
a(F-0.0012453129446345983
F-4.624143741415027e-05
F0.001217561771611311
F-0.0016147711419894982
F-0.003502491856429295
F-0.0037099074118639415
tp2351
abag0
(g11
g2
Ntp2352
Rp2353
(lp2354
(F0.2858085332089219
F-0.24958458673372114
F1.2783322459043849
F0.05341207678896375
F0.06372925127018168
F0.13123599579931355
tp2355
a(F-0.0012638855092831564
F-0.00013855488161142635
F0.0011938665357823942
F-0.001714163372282602
F-0.003456491296300215
F-0.0031555850419310374
tp2356
abag0
(g11
g2
Ntp2357
Rp2358
(lp2359
(F0.28453648075552324
F-0.24975889992128283
F1.2795160285834584
F0.05166479766331337
F0.06028748719796277
F0.1283180358879988
tp2360
a(F-0.0012839117022863148
F-0.00022702337797599628
F0.0011687269214232245
F-0.0017958600443445858
F-0.003419540835362379
F-0.0025670450001344294
tp2361
abag0
(g11
g2
Ntp2362
Rp2363
(lp2364
(F0.28324368406193573
F-0.2500176974253857
F1.2806733783811726
F0.04984025458857252
F0.05687711955499006
F0.12598888060507477
tp2365
a(F-0.0013057105282761237
F-0.0003056179137679787
F0.001140390070562733
F-0.0018665726103110417
F-0.003396337877809433
F-0.001977943600460953
tp2366
abag0
(g11
g2
Ntp2367
Rp2368
(lp2369
(F0.2819282774650099
F-0.25034871478220744
F1.2818003998568204
F0.047946458077619984
F0.05348256703808666
F0.12423529748870984
tp2370
a(F-0.0013295118988278648
F-0.00036842438156372604
F0.001107128717280769
F-0.001933661381338842
F-0.003391418215140728
F-0.001422416207769275
tp2371
abag0
(g11
g2
Ntp2372
Rp2373
(lp2374
(F0.28058820386917854
F-0.25073394401482635
F1.2828915203035147
F0.045983994855256165
F0.05008388087466699
F0.12301044208641009
tp2375
a(F-0.0013554504643797831
F-0.0004099518061854164
F0.0010673396113556933
F-0.0020046425604841695
F-0.0034089003511386428
F-0.0009332974581725743
tp2376
abag0
(g11
g2
Ntp2377
Rp2378
(lp2379
(F0.27922131116812154
F-0.25115017513836324
F1.2839396518235984
F0.04394607069240616
F0.046657260552479665
F0.12223585314408855
tp2380
a(F-0.0013835627576834558
F-0.00042542521131983625
F0.0010196376836890293
F-0.002086696434915111
F-0.003452241957221767
F-0.000540402901193806
tp2381
abag0
(g11
g2
Ntp2382
Rp2383
(lp2384
(F0.2778254502326892
F-0.25156981797250594
F1.2849364437472703
F0.041819033141805496
F0.04317580265935437
F0.12180510386215605
tp2385
a(F-0.0014137875308062042
F-0.00041104735841594476
F0.0009629407376851259
F-0.002186205112036409
F-0.0035240221898630896
F-0.00026896507070619803
tp2386
abag0
(g11
g2
Ntp2387
Rp2388
(lp2389
(F0.2763985713612811
F-0.25196196741048166
F1.2858726140161714
F0.03958333405792011
F0.03961045195488019
F0.12158892073135084
tp2390
a(F-0.0014459690630730137
F-0.00036421519977938323
F0.000896539955786859
F-0.002308345960354621
F-0.0036257622788888623
F-0.000138308243540836
tp2391
abag0
(g11
g2
Ntp2392
Rp2393
(lp2394
(F0.27493881634501716
F-0.25229366210153437
F1.2867383437531945
F0.03721486710929304
F0.035931112205990164
F0.1214415026152588
tp2395
a(F-0.001479863134398885
F-0.0002836792808053415
F0.00082015227911345
F-0.0024567632336360756
F-0.003757794767035762
F-0.00016083273524754473
tp2396
abag0
(g11
g2
Ntp2397
Rp2398
(lp2399
(F0.2734446036297854
F-0.2525312759664696
F1.2875237156965078
F0.034686594993721655
F0.032107864994139
F0.12120770887441909
tp2400
a(F-0.0015151452986240975
F-0.00016963736602847905
F0.0007339517056084411
F-0.0026333354515148794
F-0.003919189165974076
F-0.0003413623040971477
tp2401
abag0
(g11
g2
Ntp2402
Rp2403
(lp2404
(F0.2719147044375776
F-0.2526419746596758
F1.288219174685274
F0.031970365846744675
F0.02811223816849361
F0.12073073989096263
tp2405
a(F-0.0015514210545568153
F-2.3757077075564846e-05
F0.0006385777010617931
F-0.0028380502833671843
F-0.004107738744085637
F-0.000676888093851443
tp2406
abag0
(g11
g2
Ntp2407
Rp2408
(lp2409
(F0.2703483081181273
F-0.25259516540957555
F1.2888159870816662
F0.029038809171262128
F0.023918462240991246
F0.11985990874609312
tp2410
a(F-0.0015882374968823308
F0.00015087388115157696
F0.00053512016181491
F-0.0030689922853975133
F-0.004320009852554157
F-0.0011567207040977727
tp2411
abag0
(g11
g2
Ntp2412
Rp2413
(lp2414
(F0.2687450754184761
F-0.25236386880150374
F1.2893066759653655
F0.025867198928703435
F0.01950465297755732
F0.11845810022300717
tp2415
a(F-0.0016250960322006654
F0.00034986747960459065
F0.00042508163701571075
F-0.0033224422510909906
F-0.004551451818170954
F-0.0017630396804587047
tp2416
abag0
(g11
g2
Ntp2417
Rp2418
(lp2419
(F0.2671051787655088
F-0.25192594498769233
F1.289685410138484
F0.02243517525837174
F0.014853861727189577
F0.11640853270113143
tp2420
a(F-0.0016614657636536494
F0.0005677189857272693
F0.00031031874036840457
F-0.0035930805349574054
F-0.004796562175348378
F-0.0024718082246516816
tp2421
abag0
(g11
g2
Ntp2422
Rp2423
(lp2424
(F0.26542932904123545
F-0.25126511428311527
F1.289948327356212
F0.01872822629431009
F0.009954941450897791
F0.1136204785852594
tp2425
a(F-0.0016967971768614178
F0.0007980449813072187
F0.00019296578824957528
F-0.0038742808639467058
F-0.00504909905894387
F-0.003254001434846437
tp2426
abag0
(g11
g2
Ntp2427
Rp2428
(lp2429
(F0.26371878868329623
F-0.25037172270304514
F1.2900937756117459
F0.014738847041453158
F0.004803185594574891
F0.11003365723993867
tp2430
a(F-0.0017305357960384143
F0.0010338635114495248
F7.53446319848692e-05
F-0.0041584761869189295
F-0.0053023300970104995
F-0.004077079970149635
tp2431
abag0
(g11
g2
Ntp2432
Rp2433
(lp2434
(F0.2619753712585236
F-0.249243216119158
F1.2901224605569173
F0.010467312264110839
F-0.0005992916291186286
F0.10562108754591996
tp2435
a(F-0.001762135518241164
F0.0012679019849824796
F-4.013464312458694e-05
F-0.00443757430041194
F-0.0055493052632587655
F-0.004906628570970768
tp2436
abaa(F1.0
F2.0
F3.0
F4.0
F5.0
F6.0
F7.0
F8.0
F9.0
F10.0
F11.0
F12.0
F13.0
F14.0
F15.0
F16.0
F17.0
F18.0
F19.0
F20.0
F21.0
F22.0
F23.0
F24.0
F25.0
F26.0
F27.0
F28.0
F29.0
F30.0
F31.0
F32.0
F33.0
F34.0
F35.0
F36.0
F37.0
F38.0
F39.0
F40.0
F41.0
F42.0
F43.0
F44.0
F45.0
F46.0
F47.0
F48.0
F49.0
F50.0
F51.0
F52.0
F53.0
F54.0
F55.0
F56.0
F57.0
F58.0
F59.0
F60.0
F61.0
F62.0
F63.0
F64.0
F65.0
F66.0
F67.0
F68.0
F69.0
F70.0
F71.0
F72.0
F73.0
F74.0
F75.0
F76.0
F77.0
F78.0
F79.0
F80.0
F81.0
F82.0
F83.0
F84.0
F85.0
F86.0
F87.0
F88.0
F89.0
F90.0
F91.0
F92.0
F93.0
F94.0
F95.0
F96.0
F97.0
F98.0
F99.0
F100.0
F101.0
F102.0
F103.0
F104.0
F105.0
F106.0
F107.0
F108.0
F109.0
F110.0
F111.0
F112.0
F113.0
F114.0
F115.0
F116.0
F117.0
F118.0
F119.0
F120.0
F121.0
F122.0
F123.0
F124.0
F125.0
F126.0
F127.0
F128.0
F129.0
F130.0
F131.0
F132.0
F133.0
F134.0
F135.0
F136.0
F137.0
F138.0
F139.0
F140.0
F141.0
F142.0
F143.0
F144.0
F145.0
F146.0
F147.0
F148.0
F149.0
F150.0
F151.0
F152.0
F153.0
F154.0
F155.0
F156.0
F157.0
F158.0
F159.0
F160.0
F161.0
F162.0
F163.0
F164.0
F165.0
F166.0
F167.0
F168.0
F169.0
F170.0
F171.0
F172.0
F173.0
F174.0
F175.0
F176.0
F177.0
F178.0
F179.0
F180.0
F181.0
F182.0
F183.0
F184.0
F185.0
F186.0
F187.0
F188.0
F189.0
F190.0
F191.0
F192.0
F193.0
F194.0
F195.0
F196.0
F197.0
F198.0
F199.0
F200.0
F201.0
F202.0
F203.0
F204.0
F205.0
F206.0
F207.0
F208.0
F209.0
F210.0
F211.0
F212.0
F213.0
F214.0
F215.0
F216.0
F217.0
F218.0
F219.0
F220.0
F221.0
F222.0
F223.0
F224.0
F225.0
F226.0
F227.0
F228.0
F229.0
F230.0
F231.0
F232.0
F233.0
F234.0
F235.0
F236.0
F237.0
F238.0
F239.0
F240.0
F241.0
F242.0
F243.0
F244.0
F245.0
F246.0
F247.0
F248.0
F249.0
F250.0
F251.0
F252.0
F253.0
F254.0
F255.0
F256.0
F257.0
F258.0
F259.0
F260.0
F261.0
F262.0
F263.0
F264.0
F265.0
F266.0
F267.0
F268.0
F269.0
F270.0
F271.0
F272.0
F273.0
F274.0
F275.0
F276.0
F277.0
F278.0
F279.0
F280.0
F281.0
F282.0
F283.0
F284.0
F285.0
F286.0
F287.0
F288.0
F289.0
F290.0
F291.0
F292.0
F293.0
F294.0
F295.0
F296.0
F297.0
F298.0
F299.0
F300.0
F301.0
F302.0
F303.0
F304.0
F305.0
F306.0
F307.0
F308.0
F309.0
F310.0
F311.0
F312.0
F313.0
F314.0
F315.0
F316.0
F317.0
F318.0
F319.0
F320.0
F321.0
F322.0
F323.0
F324.0
F325.0
F326.0
F327.0
F328.0
F329.0
F330.0
F331.0
F332.0
F333.0
F334.0
F335.0
F336.0
F337.0
F338.0
F339.0
F340.0
F341.0
F342.0
F343.0
F344.0
F345.0
F346.0
F347.0
F348.0
F349.0
F350.0
F351.0
F352.0
F353.0
F354.0
F355.0
F356.0
F357.0
F358.0
F359.0
F360.0
F361.0
F362.0
F363.0
F364.0
F365.0
F366.0
F367.0
F368.0
F369.0
F370.0
F371.0
F372.0
F373.0
F374.0
F375.0
F376.0
F377.0
F378.0
F379.0
F380.0
F381.0
F382.0
F383.0
F384.0
F385.0
F386.0
F387.0
F388.0
F389.0
F390.0
F391.0
F392.0
F393.0
F394.0
F395.0
F396.0
F397.0
F398.0
F399.0
F400.0
F401.0
F402.0
F403.0
F404.0
F405.0
F406.0
F407.0
F408.0
F409.0
F410.0
F411.0
F412.0
F413.0
F414.0
F415.0
F416.0
F417.0
F418.0
F419.0
F420.0
F421.0
F422.0
F423.0
F424.0
F425.0
F426.0
F427.0
F428.0
F429.0
F430.0
F431.0
F432.0
F433.0
F434.0
F435.0
F436.0
F437.0
F438.0
F439.0
F440.0
F441.0
F442.0
F443.0
F444.0
F445.0
F446.0
F447.0
F448.0
F449.0
F450.0
F451.0
F452.0
F453.0
F454.0
F455.0
F456.0
F457.0
F458.0
F459.0
F460.0
F461.0
F462.0
F463.0
F464.0
F465.0
F466.0
F467.0
F468.0
F469.0
F470.0
F471.0
F472.0
F473.0
F474.0
F475.0
F476.0
F477.0
F478.0
F479.0
F480.0
F481.0
F482.0
F483.0
F484.0
F485.0
tp2437
abaI1
ab.